
main:     file format elf64-tradlittlemips


Disassembly of section .text:

ffffffffa0800000 <_start>:
ffffffffa0800000:	67bdfff0 	daddiu	sp,sp,-16
ffffffffa0800004:	ffbf0008 	sd	ra,8(sp)
ffffffffa0800008:	ffbe0000 	sd	s8,0(sp)
ffffffffa080000c:	03a0f02d 	move	s8,sp
ffffffffa0800010:	3c020000 	lui	v0,0x0
ffffffffa0800014:	64420000 	daddiu	v0,v0,0
ffffffffa0800018:	00021438 	dsll	v0,v0,0x10
ffffffffa080001c:	6442a080 	daddiu	v0,v0,-24448
ffffffffa0800020:	00021438 	dsll	v0,v0,0x10
ffffffffa0800024:	64445290 	daddiu	a0,v0,21136
ffffffffa0800028:	0c2010c7 	jal	ffffffffa080431c <printk>
ffffffffa080002c:	00000000 	nop
ffffffffa0800030:	0c200050 	jal	ffffffffa0800140 <asm_start>
ffffffffa0800034:	00000000 	nop
ffffffffa0800038:	0c200724 	jal	ffffffffa0801c90 <init_stack>
ffffffffa080003c:	00000000 	nop
ffffffffa0800040:	3c020000 	lui	v0,0x0
ffffffffa0800044:	64420000 	daddiu	v0,v0,0
ffffffffa0800048:	00021438 	dsll	v0,v0,0x10
ffffffffa080004c:	6442a080 	daddiu	v0,v0,-24448
ffffffffa0800050:	00021438 	dsll	v0,v0,0x10
ffffffffa0800054:	644452a0 	daddiu	a0,v0,21152
ffffffffa0800058:	0c2010c7 	jal	ffffffffa080431c <printk>
ffffffffa080005c:	00000000 	nop
ffffffffa0800060:	0c200679 	jal	ffffffffa08019e4 <init_exception>
ffffffffa0800064:	00000000 	nop
ffffffffa0800068:	3c020000 	lui	v0,0x0
ffffffffa080006c:	64420000 	daddiu	v0,v0,0
ffffffffa0800070:	00021438 	dsll	v0,v0,0x10
ffffffffa0800074:	6442a080 	daddiu	v0,v0,-24448
ffffffffa0800078:	00021438 	dsll	v0,v0,0x10
ffffffffa080007c:	644452d0 	daddiu	a0,v0,21200
ffffffffa0800080:	0c2010c7 	jal	ffffffffa080431c <printk>
ffffffffa0800084:	00000000 	nop
ffffffffa0800088:	0c200154 	jal	ffffffffa0800550 <init_memory>
ffffffffa080008c:	00000000 	nop
ffffffffa0800090:	3c020000 	lui	v0,0x0
ffffffffa0800094:	64420000 	daddiu	v0,v0,0
ffffffffa0800098:	00021438 	dsll	v0,v0,0x10
ffffffffa080009c:	6442a080 	daddiu	v0,v0,-24448
ffffffffa08000a0:	00021438 	dsll	v0,v0,0x10
ffffffffa08000a4:	64445310 	daddiu	a0,v0,21264
ffffffffa08000a8:	0c2010c7 	jal	ffffffffa080431c <printk>
ffffffffa08000ac:	00000000 	nop
ffffffffa08000b0:	0c200681 	jal	ffffffffa0801a04 <init_syscall>
ffffffffa08000b4:	00000000 	nop
ffffffffa08000b8:	3c020000 	lui	v0,0x0
ffffffffa08000bc:	64420000 	daddiu	v0,v0,0
ffffffffa08000c0:	00021438 	dsll	v0,v0,0x10
ffffffffa08000c4:	6442a080 	daddiu	v0,v0,-24448
ffffffffa08000c8:	00021438 	dsll	v0,v0,0x10
ffffffffa08000cc:	64445348 	daddiu	a0,v0,21320
ffffffffa08000d0:	0c2010c7 	jal	ffffffffa080431c <printk>
ffffffffa08000d4:	00000000 	nop
ffffffffa08000d8:	0c20015c 	jal	ffffffffa0800570 <init_pcb>
ffffffffa08000dc:	00000000 	nop
ffffffffa08000e0:	3c020000 	lui	v0,0x0
ffffffffa08000e4:	64420000 	daddiu	v0,v0,0
ffffffffa08000e8:	00021438 	dsll	v0,v0,0x10
ffffffffa08000ec:	6442a080 	daddiu	v0,v0,-24448
ffffffffa08000f0:	00021438 	dsll	v0,v0,0x10
ffffffffa08000f4:	64445378 	daddiu	a0,v0,21368
ffffffffa08000f8:	0c2010c7 	jal	ffffffffa080431c <printk>
ffffffffa08000fc:	00000000 	nop
ffffffffa0800100:	0c200b00 	jal	ffffffffa0802c00 <init_screen>
ffffffffa0800104:	00000000 	nop
ffffffffa0800108:	3c020000 	lui	v0,0x0
ffffffffa080010c:	64420000 	daddiu	v0,v0,0
ffffffffa0800110:	00021438 	dsll	v0,v0,0x10
ffffffffa0800114:	6442a080 	daddiu	v0,v0,-24448
ffffffffa0800118:	00021438 	dsll	v0,v0,0x10
ffffffffa080011c:	644453a0 	daddiu	a0,v0,21408
ffffffffa0800120:	0c2010c7 	jal	ffffffffa080431c <printk>
ffffffffa0800124:	00000000 	nop
ffffffffa0800128:	0c20005a 	jal	ffffffffa0800168 <do_scheduler>
ffffffffa080012c:	00000000 	nop
ffffffffa0800130:	0820004a 	j	ffffffffa0800128 <_start+0x128>
ffffffffa0800134:	00000000 	nop
	...

ffffffffa0800140 <asm_start>:
ffffffffa0800140:	40806000 	mtc0	zero,c0_status
ffffffffa0800144:	40809000 	mtc0	zero,c0_watchlo
ffffffffa0800148:	40809800 	mtc0	zero,c0_watchhi
ffffffffa080014c:	40088000 	mfc0	a4,c0_config
ffffffffa0800150:	2401fff8 	li	at,-8
ffffffffa0800154:	01014024 	and	a4,a4,at
ffffffffa0800158:	35080002 	ori	a4,a4,0x2
ffffffffa080015c:	40888000 	mtc0	a4,c0_config
ffffffffa0800160:	03e00008 	jr	ra
ffffffffa0800164:	00000000 	nop

ffffffffa0800168 <do_scheduler>:
ffffffffa0800168:	3c1a0000 	lui	k0,0x0
ffffffffa080016c:	675a0000 	daddiu	k0,k0,0
ffffffffa0800170:	001ad438 	dsll	k0,k0,0x10
ffffffffa0800174:	675aa080 	daddiu	k0,k0,-24448
ffffffffa0800178:	001ad438 	dsll	k0,k0,0x10
ffffffffa080017c:	df5a75e8 	ld	k0,30184(k0)
ffffffffa0800180:	635a0000 	daddi	k0,k0,0
ffffffffa0800184:	ff410008 	sd	at,8(k0)
ffffffffa0800188:	ff420010 	sd	v0,16(k0)
ffffffffa080018c:	ff430018 	sd	v1,24(k0)
ffffffffa0800190:	ff440020 	sd	a0,32(k0)
ffffffffa0800194:	ff450028 	sd	a1,40(k0)
ffffffffa0800198:	ff460030 	sd	a2,48(k0)
ffffffffa080019c:	ff470038 	sd	a3,56(k0)
ffffffffa08001a0:	ff480040 	sd	a4,64(k0)
ffffffffa08001a4:	ff490048 	sd	a5,72(k0)
ffffffffa08001a8:	ff4a0050 	sd	a6,80(k0)
ffffffffa08001ac:	ff4b0058 	sd	a7,88(k0)
ffffffffa08001b0:	ff4c0060 	sd	t0,96(k0)
ffffffffa08001b4:	ff4d0068 	sd	t1,104(k0)
ffffffffa08001b8:	ff4e0070 	sd	t2,112(k0)
ffffffffa08001bc:	ff4f0078 	sd	t3,120(k0)
ffffffffa08001c0:	ff500080 	sd	s0,128(k0)
ffffffffa08001c4:	ff510088 	sd	s1,136(k0)
ffffffffa08001c8:	ff520090 	sd	s2,144(k0)
ffffffffa08001cc:	ff530098 	sd	s3,152(k0)
ffffffffa08001d0:	ff5400a0 	sd	s4,160(k0)
ffffffffa08001d4:	ff5500a8 	sd	s5,168(k0)
ffffffffa08001d8:	ff5600b0 	sd	s6,176(k0)
ffffffffa08001dc:	ff5700b8 	sd	s7,184(k0)
ffffffffa08001e0:	ff5800c0 	sd	t8,192(k0)
ffffffffa08001e4:	ff5900c8 	sd	t9,200(k0)
ffffffffa08001e8:	ff5c00e0 	sd	gp,224(k0)
ffffffffa08001ec:	ff5d00e8 	sd	sp,232(k0)
ffffffffa08001f0:	ff5e00f0 	sd	s8,240(k0)
ffffffffa08001f4:	ff5f00f8 	sd	ra,248(k0)
ffffffffa08001f8:	401b6000 	mfc0	k1,c0_status
ffffffffa08001fc:	00000000 	nop
ffffffffa0800200:	af5b0100 	sw	k1,256(k0)
ffffffffa0800204:	0000d810 	mfhi	k1
ffffffffa0800208:	af5b0110 	sw	k1,272(k0)
ffffffffa080020c:	0000d812 	mflo	k1
ffffffffa0800210:	af5b0118 	sw	k1,280(k0)
ffffffffa0800214:	403b4000 	dmfc0	k1,c0_badvaddr
ffffffffa0800218:	00000000 	nop
ffffffffa080021c:	ff5b0120 	sd	k1,288(k0)
ffffffffa0800220:	401b6800 	mfc0	k1,c0_cause
ffffffffa0800224:	00000000 	nop
ffffffffa0800228:	af5b0108 	sw	k1,264(k0)
ffffffffa080022c:	403b7000 	dmfc0	k1,c0_epc
ffffffffa0800230:	00000000 	nop
ffffffffa0800234:	ff5b0128 	sd	k1,296(k0)
ffffffffa0800238:	0c200763 	jal	ffffffffa0801d8c <scheduler>
ffffffffa080023c:	00000000 	nop
ffffffffa0800240:	635a0000 	daddi	k0,k0,0
ffffffffa0800244:	3c1a0000 	lui	k0,0x0
ffffffffa0800248:	675a0000 	daddiu	k0,k0,0
ffffffffa080024c:	001ad438 	dsll	k0,k0,0x10
ffffffffa0800250:	675aa080 	daddiu	k0,k0,-24448
ffffffffa0800254:	001ad438 	dsll	k0,k0,0x10
ffffffffa0800258:	df5a75e8 	ld	k0,30184(k0)
ffffffffa080025c:	df400000 	ld	zero,0(k0)
ffffffffa0800260:	df410008 	ld	at,8(k0)
ffffffffa0800264:	df420010 	ld	v0,16(k0)
ffffffffa0800268:	df430018 	ld	v1,24(k0)
ffffffffa080026c:	df440020 	ld	a0,32(k0)
ffffffffa0800270:	df450028 	ld	a1,40(k0)
ffffffffa0800274:	df460030 	ld	a2,48(k0)
ffffffffa0800278:	df470038 	ld	a3,56(k0)
ffffffffa080027c:	df480040 	ld	a4,64(k0)
ffffffffa0800280:	df490048 	ld	a5,72(k0)
ffffffffa0800284:	df4a0050 	ld	a6,80(k0)
ffffffffa0800288:	df4b0058 	ld	a7,88(k0)
ffffffffa080028c:	df4c0060 	ld	t0,96(k0)
ffffffffa0800290:	df4d0068 	ld	t1,104(k0)
ffffffffa0800294:	df4e0070 	ld	t2,112(k0)
ffffffffa0800298:	df4f0078 	ld	t3,120(k0)
ffffffffa080029c:	df500080 	ld	s0,128(k0)
ffffffffa08002a0:	df510088 	ld	s1,136(k0)
ffffffffa08002a4:	df520090 	ld	s2,144(k0)
ffffffffa08002a8:	df530098 	ld	s3,152(k0)
ffffffffa08002ac:	df5400a0 	ld	s4,160(k0)
ffffffffa08002b0:	df5500a8 	ld	s5,168(k0)
ffffffffa08002b4:	df5600b0 	ld	s6,176(k0)
ffffffffa08002b8:	df5700b8 	ld	s7,184(k0)
ffffffffa08002bc:	df5800c0 	ld	t8,192(k0)
ffffffffa08002c0:	df5900c8 	ld	t9,200(k0)
ffffffffa08002c4:	df5c00e0 	ld	gp,224(k0)
ffffffffa08002c8:	df5d00e8 	ld	sp,232(k0)
ffffffffa08002cc:	df5e00f0 	ld	s8,240(k0)
ffffffffa08002d0:	df5f00f8 	ld	ra,248(k0)
ffffffffa08002d4:	8f5b0100 	lw	k1,256(k0)
ffffffffa08002d8:	409b6000 	mtc0	k1,c0_status
ffffffffa08002dc:	8f5b0110 	lw	k1,272(k0)
ffffffffa08002e0:	03600011 	mthi	k1
ffffffffa08002e4:	8f5b0118 	lw	k1,280(k0)
ffffffffa08002e8:	03600013 	mtlo	k1
ffffffffa08002ec:	df5b0120 	ld	k1,288(k0)
ffffffffa08002f0:	40bb4000 	dmtc0	k1,c0_badvaddr
ffffffffa08002f4:	8f5b0108 	lw	k1,264(k0)
ffffffffa08002f8:	409b6800 	mtc0	k1,c0_cause
ffffffffa08002fc:	df5b0128 	ld	k1,296(k0)
ffffffffa0800300:	40bb7000 	dmtc0	k1,c0_epc
ffffffffa0800304:	03e00008 	jr	ra
ffffffffa0800308:	00000000 	nop

ffffffffa080030c <TLBexception_handler_entry>:
ffffffffa080030c:	00000000 	nop

ffffffffa0800310 <invoke_syscall>:
ffffffffa0800310:	67bdffd0 	daddiu	sp,sp,-48
ffffffffa0800314:	ffbf0028 	sd	ra,40(sp)
ffffffffa0800318:	ffbe0020 	sd	s8,32(sp)
ffffffffa080031c:	03a0f02d 	move	s8,sp
ffffffffa0800320:	0080102d 	move	v0,a0
ffffffffa0800324:	00021000 	sll	v0,v0,0x0
ffffffffa0800328:	a3c20010 	sb	v0,16(s8)
ffffffffa080032c:	3c028f0d 	lui	v0,0x8f0d
ffffffffa0800330:	34425570 	ori	v0,v0,0x5570
ffffffffa0800334:	ffc20000 	sd	v0,0(s8)
ffffffffa0800338:	83c20010 	lb	v0,16(s8)
ffffffffa080033c:	0040182d 	move	v1,v0
ffffffffa0800340:	dfc20000 	ld	v0,0(s8)
ffffffffa0800344:	0060202d 	move	a0,v1
ffffffffa0800348:	0040f809 	jalr	v0
ffffffffa080034c:	00000000 	nop
ffffffffa0800350:	03c0e82d 	move	sp,s8
ffffffffa0800354:	dfbf0028 	ld	ra,40(sp)
ffffffffa0800358:	dfbe0020 	ld	s8,32(sp)
ffffffffa080035c:	67bd0030 	daddiu	sp,sp,48
ffffffffa0800360:	03e00008 	jr	ra
ffffffffa0800364:	00000000 	nop

ffffffffa0800368 <port_write>:
ffffffffa0800368:	67bdffd0 	daddiu	sp,sp,-48
ffffffffa080036c:	ffbf0028 	sd	ra,40(sp)
ffffffffa0800370:	ffbe0020 	sd	s8,32(sp)
ffffffffa0800374:	03a0f02d 	move	s8,sp
ffffffffa0800378:	ffc40010 	sd	a0,16(s8)
ffffffffa080037c:	3c028f0d 	lui	v0,0x8f0d
ffffffffa0800380:	34425534 	ori	v0,v0,0x5534
ffffffffa0800384:	ffc20000 	sd	v0,0(s8)
ffffffffa0800388:	dfc20000 	ld	v0,0(s8)
ffffffffa080038c:	dfc40010 	ld	a0,16(s8)
ffffffffa0800390:	0040f809 	jalr	v0
ffffffffa0800394:	00000000 	nop
ffffffffa0800398:	03c0e82d 	move	sp,s8
ffffffffa080039c:	dfbf0028 	ld	ra,40(sp)
ffffffffa08003a0:	dfbe0020 	ld	s8,32(sp)
ffffffffa08003a4:	67bd0030 	daddiu	sp,sp,48
ffffffffa08003a8:	03e00008 	jr	ra
ffffffffa08003ac:	00000000 	nop

ffffffffa08003b0 <sdwrite>:
ffffffffa08003b0:	67bdffd0 	daddiu	sp,sp,-48
ffffffffa08003b4:	ffbf0028 	sd	ra,40(sp)
ffffffffa08003b8:	ffbe0020 	sd	s8,32(sp)
ffffffffa08003bc:	03a0f02d 	move	s8,sp
ffffffffa08003c0:	ffc40010 	sd	a0,16(s8)
ffffffffa08003c4:	00a0182d 	move	v1,a1
ffffffffa08003c8:	00c0102d 	move	v0,a2
ffffffffa08003cc:	00031800 	sll	v1,v1,0x0
ffffffffa08003d0:	afc30018 	sw	v1,24(s8)
ffffffffa08003d4:	00021000 	sll	v0,v0,0x0
ffffffffa08003d8:	afc2001c 	sw	v0,28(s8)
ffffffffa08003dc:	3c028f0d 	lui	v0,0x8f0d
ffffffffa08003e0:	34425d54 	ori	v0,v0,0x5d54
ffffffffa08003e4:	ffc20000 	sd	v0,0(s8)
ffffffffa08003e8:	8fc50018 	lw	a1,24(s8)
ffffffffa08003ec:	8fc3001c 	lw	v1,28(s8)
ffffffffa08003f0:	dfc20000 	ld	v0,0(s8)
ffffffffa08003f4:	dfc40010 	ld	a0,16(s8)
ffffffffa08003f8:	0060302d 	move	a2,v1
ffffffffa08003fc:	0040f809 	jalr	v0
ffffffffa0800400:	00000000 	nop
ffffffffa0800404:	8fc2001c 	lw	v0,28(s8)
ffffffffa0800408:	03c0e82d 	move	sp,s8
ffffffffa080040c:	dfbf0028 	ld	ra,40(sp)
ffffffffa0800410:	dfbe0020 	ld	s8,32(sp)
ffffffffa0800414:	67bd0030 	daddiu	sp,sp,48
ffffffffa0800418:	03e00008 	jr	ra
ffffffffa080041c:	00000000 	nop

ffffffffa0800420 <sdread>:
ffffffffa0800420:	67bdffd0 	daddiu	sp,sp,-48
ffffffffa0800424:	ffbf0028 	sd	ra,40(sp)
ffffffffa0800428:	ffbe0020 	sd	s8,32(sp)
ffffffffa080042c:	03a0f02d 	move	s8,sp
ffffffffa0800430:	ffc40010 	sd	a0,16(s8)
ffffffffa0800434:	00a0182d 	move	v1,a1
ffffffffa0800438:	00c0102d 	move	v0,a2
ffffffffa080043c:	00031800 	sll	v1,v1,0x0
ffffffffa0800440:	afc30018 	sw	v1,24(s8)
ffffffffa0800444:	00021000 	sll	v0,v0,0x0
ffffffffa0800448:	afc2001c 	sw	v0,28(s8)
ffffffffa080044c:	3c028f0d 	lui	v0,0x8f0d
ffffffffa0800450:	34425e10 	ori	v0,v0,0x5e10
ffffffffa0800454:	ffc20000 	sd	v0,0(s8)
ffffffffa0800458:	8fc50018 	lw	a1,24(s8)
ffffffffa080045c:	8fc3001c 	lw	v1,28(s8)
ffffffffa0800460:	dfc20000 	ld	v0,0(s8)
ffffffffa0800464:	dfc40010 	ld	a0,16(s8)
ffffffffa0800468:	0060302d 	move	a2,v1
ffffffffa080046c:	0040f809 	jalr	v0
ffffffffa0800470:	00000000 	nop
ffffffffa0800474:	8fc2001c 	lw	v0,28(s8)
ffffffffa0800478:	03c0e82d 	move	sp,s8
ffffffffa080047c:	dfbf0028 	ld	ra,40(sp)
ffffffffa0800480:	dfbe0020 	ld	s8,32(sp)
ffffffffa0800484:	67bd0030 	daddiu	sp,sp,48
ffffffffa0800488:	03e00008 	jr	ra
ffffffffa080048c:	00000000 	nop

ffffffffa0800490 <sd_card_read>:
ffffffffa0800490:	67bdffe0 	daddiu	sp,sp,-32
ffffffffa0800494:	ffbf0018 	sd	ra,24(sp)
ffffffffa0800498:	ffbe0010 	sd	s8,16(sp)
ffffffffa080049c:	03a0f02d 	move	s8,sp
ffffffffa08004a0:	ffc40000 	sd	a0,0(s8)
ffffffffa08004a4:	00a0182d 	move	v1,a1
ffffffffa08004a8:	00c0102d 	move	v0,a2
ffffffffa08004ac:	00031800 	sll	v1,v1,0x0
ffffffffa08004b0:	afc30008 	sw	v1,8(s8)
ffffffffa08004b4:	00021000 	sll	v0,v0,0x0
ffffffffa08004b8:	afc2000c 	sw	v0,12(s8)
ffffffffa08004bc:	8fc2000c 	lw	v0,12(s8)
ffffffffa08004c0:	8fc30008 	lw	v1,8(s8)
ffffffffa08004c4:	dfc40000 	ld	a0,0(s8)
ffffffffa08004c8:	0060282d 	move	a1,v1
ffffffffa08004cc:	0040302d 	move	a2,v0
ffffffffa08004d0:	0c200108 	jal	ffffffffa0800420 <sdread>
ffffffffa08004d4:	00000000 	nop
ffffffffa08004d8:	03c0e82d 	move	sp,s8
ffffffffa08004dc:	dfbf0018 	ld	ra,24(sp)
ffffffffa08004e0:	dfbe0010 	ld	s8,16(sp)
ffffffffa08004e4:	67bd0020 	daddiu	sp,sp,32
ffffffffa08004e8:	03e00008 	jr	ra
ffffffffa08004ec:	00000000 	nop

ffffffffa08004f0 <sd_card_write>:
ffffffffa08004f0:	67bdffe0 	daddiu	sp,sp,-32
ffffffffa08004f4:	ffbf0018 	sd	ra,24(sp)
ffffffffa08004f8:	ffbe0010 	sd	s8,16(sp)
ffffffffa08004fc:	03a0f02d 	move	s8,sp
ffffffffa0800500:	ffc40000 	sd	a0,0(s8)
ffffffffa0800504:	00a0182d 	move	v1,a1
ffffffffa0800508:	00c0102d 	move	v0,a2
ffffffffa080050c:	00031800 	sll	v1,v1,0x0
ffffffffa0800510:	afc30008 	sw	v1,8(s8)
ffffffffa0800514:	00021000 	sll	v0,v0,0x0
ffffffffa0800518:	afc2000c 	sw	v0,12(s8)
ffffffffa080051c:	8fc2000c 	lw	v0,12(s8)
ffffffffa0800520:	8fc30008 	lw	v1,8(s8)
ffffffffa0800524:	dfc40000 	ld	a0,0(s8)
ffffffffa0800528:	0060282d 	move	a1,v1
ffffffffa080052c:	0040302d 	move	a2,v0
ffffffffa0800530:	0c2000ec 	jal	ffffffffa08003b0 <sdwrite>
ffffffffa0800534:	00000000 	nop
ffffffffa0800538:	03c0e82d 	move	sp,s8
ffffffffa080053c:	dfbf0018 	ld	ra,24(sp)
ffffffffa0800540:	dfbe0010 	ld	s8,16(sp)
ffffffffa0800544:	67bd0020 	daddiu	sp,sp,32
ffffffffa0800548:	03e00008 	jr	ra
ffffffffa080054c:	00000000 	nop

ffffffffa0800550 <init_memory>:
ffffffffa0800550:	67bdfff0 	daddiu	sp,sp,-16
ffffffffa0800554:	ffbe0008 	sd	s8,8(sp)
ffffffffa0800558:	03a0f02d 	move	s8,sp
ffffffffa080055c:	03c0e82d 	move	sp,s8
ffffffffa0800560:	dfbe0008 	ld	s8,8(sp)
ffffffffa0800564:	67bd0010 	daddiu	sp,sp,16
ffffffffa0800568:	03e00008 	jr	ra
ffffffffa080056c:	00000000 	nop

ffffffffa0800570 <init_pcb>:
ffffffffa0800570:	67bdffe0 	daddiu	sp,sp,-32
ffffffffa0800574:	ffbf0018 	sd	ra,24(sp)
ffffffffa0800578:	ffbe0010 	sd	s8,16(sp)
ffffffffa080057c:	03a0f02d 	move	s8,sp
ffffffffa0800580:	3c020000 	lui	v0,0x0
ffffffffa0800584:	64420000 	daddiu	v0,v0,0
ffffffffa0800588:	00021438 	dsll	v0,v0,0x10
ffffffffa080058c:	6442a080 	daddiu	v0,v0,-24448
ffffffffa0800590:	00021438 	dsll	v0,v0,0x10
ffffffffa0800594:	644475d8 	daddiu	a0,v0,30168
ffffffffa0800598:	0c200854 	jal	ffffffffa0802150 <queue_init>
ffffffffa080059c:	00000000 	nop
ffffffffa08005a0:	3c020000 	lui	v0,0x0
ffffffffa08005a4:	64420000 	daddiu	v0,v0,0
ffffffffa08005a8:	00021438 	dsll	v0,v0,0x10
ffffffffa08005ac:	6442a080 	daddiu	v0,v0,-24448
ffffffffa08005b0:	00021438 	dsll	v0,v0,0x10
ffffffffa08005b4:	644475c8 	daddiu	a0,v0,30152
ffffffffa08005b8:	0c200854 	jal	ffffffffa0802150 <queue_init>
ffffffffa08005bc:	00000000 	nop
ffffffffa08005c0:	3c020000 	lui	v0,0x0
ffffffffa08005c4:	64420000 	daddiu	v0,v0,0
ffffffffa08005c8:	00021438 	dsll	v0,v0,0x10
ffffffffa08005cc:	6442a080 	daddiu	v0,v0,-24448
ffffffffa08005d0:	00021438 	dsll	v0,v0,0x10
ffffffffa08005d4:	8c4258b0 	lw	v0,22704(v0)
ffffffffa08005d8:	24430001 	addiu	v1,v0,1
ffffffffa08005dc:	0060202d 	move	a0,v1
ffffffffa08005e0:	3c030000 	lui	v1,0x0
ffffffffa08005e4:	64630000 	daddiu	v1,v1,0
ffffffffa08005e8:	00031c38 	dsll	v1,v1,0x10
ffffffffa08005ec:	6463a080 	daddiu	v1,v1,-24448
ffffffffa08005f0:	00031c38 	dsll	v1,v1,0x10
ffffffffa08005f4:	ac6458b0 	sw	a0,22704(v1)
ffffffffa08005f8:	3c030000 	lui	v1,0x0
ffffffffa08005fc:	64630000 	daddiu	v1,v1,0
ffffffffa0800600:	00031c38 	dsll	v1,v1,0x10
ffffffffa0800604:	6463a080 	daddiu	v1,v1,-24448
ffffffffa0800608:	00031c38 	dsll	v1,v1,0x10
ffffffffa080060c:	646375f0 	daddiu	v1,v1,30192
ffffffffa0800610:	ac620294 	sw	v0,660(v1)
ffffffffa0800614:	3c020000 	lui	v0,0x0
ffffffffa0800618:	64420000 	daddiu	v0,v0,0
ffffffffa080061c:	00021438 	dsll	v0,v0,0x10
ffffffffa0800620:	6442a080 	daddiu	v0,v0,-24448
ffffffffa0800624:	00021438 	dsll	v0,v0,0x10
ffffffffa0800628:	644275f0 	daddiu	v0,v0,30192
ffffffffa080062c:	24030001 	li	v1,1
ffffffffa0800630:	ac43029c 	sw	v1,668(v0)
ffffffffa0800634:	24020001 	li	v0,1
ffffffffa0800638:	afc20000 	sw	v0,0(s8)
ffffffffa080063c:	afc00004 	sw	zero,4(s8)
ffffffffa0800640:	082003ed 	j	ffffffffa0800fb4 <init_pcb+0xa44>
ffffffffa0800644:	00000000 	nop
ffffffffa0800648:	8fc40000 	lw	a0,0(s8)
ffffffffa080064c:	0080182d 	move	v1,a0
ffffffffa0800650:	000310b8 	dsll	v0,v1,0x2
ffffffffa0800654:	0040182d 	move	v1,v0
ffffffffa0800658:	000310b8 	dsll	v0,v1,0x2
ffffffffa080065c:	0043102f 	dsubu	v0,v0,v1
ffffffffa0800660:	0044102f 	dsubu	v0,v0,a0
ffffffffa0800664:	000210b8 	dsll	v0,v0,0x2
ffffffffa0800668:	0044102f 	dsubu	v0,v0,a0
ffffffffa080066c:	00021138 	dsll	v0,v0,0x4
ffffffffa0800670:	3c030000 	lui	v1,0x0
ffffffffa0800674:	64630000 	daddiu	v1,v1,0
ffffffffa0800678:	00031c38 	dsll	v1,v1,0x10
ffffffffa080067c:	6463a080 	daddiu	v1,v1,-24448
ffffffffa0800680:	00031c38 	dsll	v1,v1,0x10
ffffffffa0800684:	646375f0 	daddiu	v1,v1,30192
ffffffffa0800688:	0043102d 	daddu	v0,v0,v1
ffffffffa080068c:	0040202d 	move	a0,v0
ffffffffa0800690:	24050128 	li	a1,296
ffffffffa0800694:	0c200e09 	jal	ffffffffa0803824 <bzero>
ffffffffa0800698:	00000000 	nop
ffffffffa080069c:	3c020000 	lui	v0,0x0
ffffffffa08006a0:	64420000 	daddiu	v0,v0,0
ffffffffa08006a4:	00021438 	dsll	v0,v0,0x10
ffffffffa08006a8:	6442a080 	daddiu	v0,v0,-24448
ffffffffa08006ac:	00021438 	dsll	v0,v0,0x10
ffffffffa08006b0:	dc4558a0 	ld	a1,22688(v0)
ffffffffa08006b4:	3c060000 	lui	a2,0x0
ffffffffa08006b8:	64c60000 	daddiu	a2,a2,0
ffffffffa08006bc:	00063438 	dsll	a2,a2,0x10
ffffffffa08006c0:	64c6a080 	daddiu	a2,a2,-24448
ffffffffa08006c4:	00063438 	dsll	a2,a2,0x10
ffffffffa08006c8:	8fc40000 	lw	a0,0(s8)
ffffffffa08006cc:	0080182d 	move	v1,a0
ffffffffa08006d0:	000310b8 	dsll	v0,v1,0x2
ffffffffa08006d4:	0040182d 	move	v1,v0
ffffffffa08006d8:	000310b8 	dsll	v0,v1,0x2
ffffffffa08006dc:	0043102f 	dsubu	v0,v0,v1
ffffffffa08006e0:	0044102f 	dsubu	v0,v0,a0
ffffffffa08006e4:	000210b8 	dsll	v0,v0,0x2
ffffffffa08006e8:	0044102f 	dsubu	v0,v0,a0
ffffffffa08006ec:	00021138 	dsll	v0,v0,0x4
ffffffffa08006f0:	64c375f0 	daddiu	v1,a2,30192
ffffffffa08006f4:	0043102d 	daddu	v0,v0,v1
ffffffffa08006f8:	fc450250 	sd	a1,592(v0)
ffffffffa08006fc:	3c020000 	lui	v0,0x0
ffffffffa0800700:	64420000 	daddiu	v0,v0,0
ffffffffa0800704:	00021438 	dsll	v0,v0,0x10
ffffffffa0800708:	6442a080 	daddiu	v0,v0,-24448
ffffffffa080070c:	00021438 	dsll	v0,v0,0x10
ffffffffa0800710:	dc4558a0 	ld	a1,22688(v0)
ffffffffa0800714:	3c060000 	lui	a2,0x0
ffffffffa0800718:	64c60000 	daddiu	a2,a2,0
ffffffffa080071c:	00063438 	dsll	a2,a2,0x10
ffffffffa0800720:	64c6a080 	daddiu	a2,a2,-24448
ffffffffa0800724:	00063438 	dsll	a2,a2,0x10
ffffffffa0800728:	8fc40000 	lw	a0,0(s8)
ffffffffa080072c:	0080182d 	move	v1,a0
ffffffffa0800730:	000310b8 	dsll	v0,v1,0x2
ffffffffa0800734:	0040182d 	move	v1,v0
ffffffffa0800738:	000310b8 	dsll	v0,v1,0x2
ffffffffa080073c:	0043102f 	dsubu	v0,v0,v1
ffffffffa0800740:	0044102f 	dsubu	v0,v0,a0
ffffffffa0800744:	000210b8 	dsll	v0,v0,0x2
ffffffffa0800748:	0044102f 	dsubu	v0,v0,a0
ffffffffa080074c:	00021138 	dsll	v0,v0,0x4
ffffffffa0800750:	64c375f0 	daddiu	v1,a2,30192
ffffffffa0800754:	0043102d 	daddu	v0,v0,v1
ffffffffa0800758:	fc4500e8 	sd	a1,232(v0)
ffffffffa080075c:	3c020000 	lui	v0,0x0
ffffffffa0800760:	64420000 	daddiu	v0,v0,0
ffffffffa0800764:	00021438 	dsll	v0,v0,0x10
ffffffffa0800768:	6442a080 	daddiu	v0,v0,-24448
ffffffffa080076c:	00021438 	dsll	v0,v0,0x10
ffffffffa0800770:	dc4358a0 	ld	v1,22688(v0)
ffffffffa0800774:	3c02ffff 	lui	v0,0xffff
ffffffffa0800778:	0062182d 	daddu	v1,v1,v0
ffffffffa080077c:	3c020000 	lui	v0,0x0
ffffffffa0800780:	64420000 	daddiu	v0,v0,0
ffffffffa0800784:	00021438 	dsll	v0,v0,0x10
ffffffffa0800788:	6442a080 	daddiu	v0,v0,-24448
ffffffffa080078c:	00021438 	dsll	v0,v0,0x10
ffffffffa0800790:	fc4358a0 	sd	v1,22688(v0)
ffffffffa0800794:	3c020000 	lui	v0,0x0
ffffffffa0800798:	64420000 	daddiu	v0,v0,0
ffffffffa080079c:	00021438 	dsll	v0,v0,0x10
ffffffffa08007a0:	6442a080 	daddiu	v0,v0,-24448
ffffffffa08007a4:	00021438 	dsll	v0,v0,0x10
ffffffffa08007a8:	8fc30004 	lw	v1,4(s8)
ffffffffa08007ac:	000318f8 	dsll	v1,v1,0x3
ffffffffa08007b0:	64425960 	daddiu	v0,v0,22880
ffffffffa08007b4:	0062102d 	daddu	v0,v1,v0
ffffffffa08007b8:	dc420000 	ld	v0,0(v0)
ffffffffa08007bc:	dc450020 	ld	a1,32(v0)
ffffffffa08007c0:	3c060000 	lui	a2,0x0
ffffffffa08007c4:	64c60000 	daddiu	a2,a2,0
ffffffffa08007c8:	00063438 	dsll	a2,a2,0x10
ffffffffa08007cc:	64c6a080 	daddiu	a2,a2,-24448
ffffffffa08007d0:	00063438 	dsll	a2,a2,0x10
ffffffffa08007d4:	8fc40000 	lw	a0,0(s8)
ffffffffa08007d8:	0080182d 	move	v1,a0
ffffffffa08007dc:	000310b8 	dsll	v0,v1,0x2
ffffffffa08007e0:	0040182d 	move	v1,v0
ffffffffa08007e4:	000310b8 	dsll	v0,v1,0x2
ffffffffa08007e8:	0043102f 	dsubu	v0,v0,v1
ffffffffa08007ec:	0044102f 	dsubu	v0,v0,a0
ffffffffa08007f0:	000210b8 	dsll	v0,v0,0x2
ffffffffa08007f4:	0044102f 	dsubu	v0,v0,a0
ffffffffa08007f8:	00021138 	dsll	v0,v0,0x4
ffffffffa08007fc:	64c375f0 	daddiu	v1,a2,30192
ffffffffa0800800:	0043102d 	daddu	v0,v0,v1
ffffffffa0800804:	fc4500f8 	sd	a1,248(v0)
ffffffffa0800808:	3c020000 	lui	v0,0x0
ffffffffa080080c:	64420000 	daddiu	v0,v0,0
ffffffffa0800810:	00021438 	dsll	v0,v0,0x10
ffffffffa0800814:	6442a080 	daddiu	v0,v0,-24448
ffffffffa0800818:	00021438 	dsll	v0,v0,0x10
ffffffffa080081c:	8c4574c0 	lw	a1,29888(v0)
ffffffffa0800820:	3c060000 	lui	a2,0x0
ffffffffa0800824:	64c60000 	daddiu	a2,a2,0
ffffffffa0800828:	00063438 	dsll	a2,a2,0x10
ffffffffa080082c:	64c6a080 	daddiu	a2,a2,-24448
ffffffffa0800830:	00063438 	dsll	a2,a2,0x10
ffffffffa0800834:	8fc40000 	lw	a0,0(s8)
ffffffffa0800838:	0080182d 	move	v1,a0
ffffffffa080083c:	000310b8 	dsll	v0,v1,0x2
ffffffffa0800840:	0040182d 	move	v1,v0
ffffffffa0800844:	000310b8 	dsll	v0,v1,0x2
ffffffffa0800848:	0043102f 	dsubu	v0,v0,v1
ffffffffa080084c:	0044102f 	dsubu	v0,v0,a0
ffffffffa0800850:	000210b8 	dsll	v0,v0,0x2
ffffffffa0800854:	0044102f 	dsubu	v0,v0,a0
ffffffffa0800858:	00021138 	dsll	v0,v0,0x4
ffffffffa080085c:	64c375f0 	daddiu	v1,a2,30192
ffffffffa0800860:	0043102d 	daddu	v0,v0,v1
ffffffffa0800864:	ac450100 	sw	a1,256(v0)
ffffffffa0800868:	3c020000 	lui	v0,0x0
ffffffffa080086c:	64420000 	daddiu	v0,v0,0
ffffffffa0800870:	00021438 	dsll	v0,v0,0x10
ffffffffa0800874:	6442a080 	daddiu	v0,v0,-24448
ffffffffa0800878:	00021438 	dsll	v0,v0,0x10
ffffffffa080087c:	8fc30004 	lw	v1,4(s8)
ffffffffa0800880:	000318f8 	dsll	v1,v1,0x3
ffffffffa0800884:	64425960 	daddiu	v0,v0,22880
ffffffffa0800888:	0062102d 	daddu	v0,v1,v0
ffffffffa080088c:	dc420000 	ld	v0,0(v0)
ffffffffa0800890:	dc450020 	ld	a1,32(v0)
ffffffffa0800894:	3c060000 	lui	a2,0x0
ffffffffa0800898:	64c60000 	daddiu	a2,a2,0
ffffffffa080089c:	00063438 	dsll	a2,a2,0x10
ffffffffa08008a0:	64c6a080 	daddiu	a2,a2,-24448
ffffffffa08008a4:	00063438 	dsll	a2,a2,0x10
ffffffffa08008a8:	8fc40000 	lw	a0,0(s8)
ffffffffa08008ac:	0080182d 	move	v1,a0
ffffffffa08008b0:	000310b8 	dsll	v0,v1,0x2
ffffffffa08008b4:	0040182d 	move	v1,v0
ffffffffa08008b8:	000310b8 	dsll	v0,v1,0x2
ffffffffa08008bc:	0043102f 	dsubu	v0,v0,v1
ffffffffa08008c0:	0044102f 	dsubu	v0,v0,a0
ffffffffa08008c4:	000210b8 	dsll	v0,v0,0x2
ffffffffa08008c8:	0044102f 	dsubu	v0,v0,a0
ffffffffa08008cc:	00021138 	dsll	v0,v0,0x4
ffffffffa08008d0:	64c375f0 	daddiu	v1,a2,30192
ffffffffa08008d4:	0043102d 	daddu	v0,v0,v1
ffffffffa08008d8:	fc450118 	sd	a1,280(v0)
ffffffffa08008dc:	8fc40000 	lw	a0,0(s8)
ffffffffa08008e0:	0080182d 	move	v1,a0
ffffffffa08008e4:	000310b8 	dsll	v0,v1,0x2
ffffffffa08008e8:	0040182d 	move	v1,v0
ffffffffa08008ec:	000310b8 	dsll	v0,v1,0x2
ffffffffa08008f0:	0043102f 	dsubu	v0,v0,v1
ffffffffa08008f4:	0044102f 	dsubu	v0,v0,a0
ffffffffa08008f8:	000210b8 	dsll	v0,v0,0x2
ffffffffa08008fc:	0044102f 	dsubu	v0,v0,a0
ffffffffa0800900:	00021138 	dsll	v0,v0,0x4
ffffffffa0800904:	64430120 	daddiu	v1,v0,288
ffffffffa0800908:	3c020000 	lui	v0,0x0
ffffffffa080090c:	64420000 	daddiu	v0,v0,0
ffffffffa0800910:	00021438 	dsll	v0,v0,0x10
ffffffffa0800914:	6442a080 	daddiu	v0,v0,-24448
ffffffffa0800918:	00021438 	dsll	v0,v0,0x10
ffffffffa080091c:	644275f0 	daddiu	v0,v0,30192
ffffffffa0800920:	0062102d 	daddu	v0,v1,v0
ffffffffa0800924:	64420008 	daddiu	v0,v0,8
ffffffffa0800928:	0040202d 	move	a0,v0
ffffffffa080092c:	24050128 	li	a1,296
ffffffffa0800930:	0c200e09 	jal	ffffffffa0803824 <bzero>
ffffffffa0800934:	00000000 	nop
ffffffffa0800938:	3c020000 	lui	v0,0x0
ffffffffa080093c:	64420000 	daddiu	v0,v0,0
ffffffffa0800940:	00021438 	dsll	v0,v0,0x10
ffffffffa0800944:	6442a080 	daddiu	v0,v0,-24448
ffffffffa0800948:	00021438 	dsll	v0,v0,0x10
ffffffffa080094c:	dc4558a0 	ld	a1,22688(v0)
ffffffffa0800950:	3c060000 	lui	a2,0x0
ffffffffa0800954:	64c60000 	daddiu	a2,a2,0
ffffffffa0800958:	00063438 	dsll	a2,a2,0x10
ffffffffa080095c:	64c6a080 	daddiu	a2,a2,-24448
ffffffffa0800960:	00063438 	dsll	a2,a2,0x10
ffffffffa0800964:	8fc40000 	lw	a0,0(s8)
ffffffffa0800968:	0080182d 	move	v1,a0
ffffffffa080096c:	000310b8 	dsll	v0,v1,0x2
ffffffffa0800970:	0040182d 	move	v1,v0
ffffffffa0800974:	000310b8 	dsll	v0,v1,0x2
ffffffffa0800978:	0043102f 	dsubu	v0,v0,v1
ffffffffa080097c:	0044102f 	dsubu	v0,v0,a0
ffffffffa0800980:	000210b8 	dsll	v0,v0,0x2
ffffffffa0800984:	0044102f 	dsubu	v0,v0,a0
ffffffffa0800988:	00021138 	dsll	v0,v0,0x4
ffffffffa080098c:	64c375f0 	daddiu	v1,a2,30192
ffffffffa0800990:	0043102d 	daddu	v0,v0,v1
ffffffffa0800994:	fc450258 	sd	a1,600(v0)
ffffffffa0800998:	3c020000 	lui	v0,0x0
ffffffffa080099c:	64420000 	daddiu	v0,v0,0
ffffffffa08009a0:	00021438 	dsll	v0,v0,0x10
ffffffffa08009a4:	6442a080 	daddiu	v0,v0,-24448
ffffffffa08009a8:	00021438 	dsll	v0,v0,0x10
ffffffffa08009ac:	dc4558a0 	ld	a1,22688(v0)
ffffffffa08009b0:	3c060000 	lui	a2,0x0
ffffffffa08009b4:	64c60000 	daddiu	a2,a2,0
ffffffffa08009b8:	00063438 	dsll	a2,a2,0x10
ffffffffa08009bc:	64c6a080 	daddiu	a2,a2,-24448
ffffffffa08009c0:	00063438 	dsll	a2,a2,0x10
ffffffffa08009c4:	8fc40000 	lw	a0,0(s8)
ffffffffa08009c8:	0080182d 	move	v1,a0
ffffffffa08009cc:	000310b8 	dsll	v0,v1,0x2
ffffffffa08009d0:	0040182d 	move	v1,v0
ffffffffa08009d4:	000310b8 	dsll	v0,v1,0x2
ffffffffa08009d8:	0043102f 	dsubu	v0,v0,v1
ffffffffa08009dc:	0044102f 	dsubu	v0,v0,a0
ffffffffa08009e0:	000210b8 	dsll	v0,v0,0x2
ffffffffa08009e4:	0044102f 	dsubu	v0,v0,a0
ffffffffa08009e8:	00021138 	dsll	v0,v0,0x4
ffffffffa08009ec:	64c375f0 	daddiu	v1,a2,30192
ffffffffa08009f0:	0043102d 	daddu	v0,v0,v1
ffffffffa08009f4:	fc450210 	sd	a1,528(v0)
ffffffffa08009f8:	3c020000 	lui	v0,0x0
ffffffffa08009fc:	64420000 	daddiu	v0,v0,0
ffffffffa0800a00:	00021438 	dsll	v0,v0,0x10
ffffffffa0800a04:	6442a080 	daddiu	v0,v0,-24448
ffffffffa0800a08:	00021438 	dsll	v0,v0,0x10
ffffffffa0800a0c:	dc4358a0 	ld	v1,22688(v0)
ffffffffa0800a10:	3c02ffff 	lui	v0,0xffff
ffffffffa0800a14:	0062182d 	daddu	v1,v1,v0
ffffffffa0800a18:	3c020000 	lui	v0,0x0
ffffffffa0800a1c:	64420000 	daddiu	v0,v0,0
ffffffffa0800a20:	00021438 	dsll	v0,v0,0x10
ffffffffa0800a24:	6442a080 	daddiu	v0,v0,-24448
ffffffffa0800a28:	00021438 	dsll	v0,v0,0x10
ffffffffa0800a2c:	fc4358a0 	sd	v1,22688(v0)
ffffffffa0800a30:	3c020000 	lui	v0,0x0
ffffffffa0800a34:	64420000 	daddiu	v0,v0,0
ffffffffa0800a38:	00021438 	dsll	v0,v0,0x10
ffffffffa0800a3c:	6442a080 	daddiu	v0,v0,-24448
ffffffffa0800a40:	00021438 	dsll	v0,v0,0x10
ffffffffa0800a44:	8fc30004 	lw	v1,4(s8)
ffffffffa0800a48:	000318f8 	dsll	v1,v1,0x3
ffffffffa0800a4c:	64425960 	daddiu	v0,v0,22880
ffffffffa0800a50:	0062102d 	daddu	v0,v1,v0
ffffffffa0800a54:	dc420000 	ld	v0,0(v0)
ffffffffa0800a58:	dc450020 	ld	a1,32(v0)
ffffffffa0800a5c:	3c060000 	lui	a2,0x0
ffffffffa0800a60:	64c60000 	daddiu	a2,a2,0
ffffffffa0800a64:	00063438 	dsll	a2,a2,0x10
ffffffffa0800a68:	64c6a080 	daddiu	a2,a2,-24448
ffffffffa0800a6c:	00063438 	dsll	a2,a2,0x10
ffffffffa0800a70:	8fc40000 	lw	a0,0(s8)
ffffffffa0800a74:	0080182d 	move	v1,a0
ffffffffa0800a78:	000310b8 	dsll	v0,v1,0x2
ffffffffa0800a7c:	0040182d 	move	v1,v0
ffffffffa0800a80:	000310b8 	dsll	v0,v1,0x2
ffffffffa0800a84:	0043102f 	dsubu	v0,v0,v1
ffffffffa0800a88:	0044102f 	dsubu	v0,v0,a0
ffffffffa0800a8c:	000210b8 	dsll	v0,v0,0x2
ffffffffa0800a90:	0044102f 	dsubu	v0,v0,a0
ffffffffa0800a94:	00021138 	dsll	v0,v0,0x4
ffffffffa0800a98:	64c375f0 	daddiu	v1,a2,30192
ffffffffa0800a9c:	0043102d 	daddu	v0,v0,v1
ffffffffa0800aa0:	fc450220 	sd	a1,544(v0)
ffffffffa0800aa4:	3c020000 	lui	v0,0x0
ffffffffa0800aa8:	64420000 	daddiu	v0,v0,0
ffffffffa0800aac:	00021438 	dsll	v0,v0,0x10
ffffffffa0800ab0:	6442a080 	daddiu	v0,v0,-24448
ffffffffa0800ab4:	00021438 	dsll	v0,v0,0x10
ffffffffa0800ab8:	8c4574c0 	lw	a1,29888(v0)
ffffffffa0800abc:	3c060000 	lui	a2,0x0
ffffffffa0800ac0:	64c60000 	daddiu	a2,a2,0
ffffffffa0800ac4:	00063438 	dsll	a2,a2,0x10
ffffffffa0800ac8:	64c6a080 	daddiu	a2,a2,-24448
ffffffffa0800acc:	00063438 	dsll	a2,a2,0x10
ffffffffa0800ad0:	8fc40000 	lw	a0,0(s8)
ffffffffa0800ad4:	0080182d 	move	v1,a0
ffffffffa0800ad8:	000310b8 	dsll	v0,v1,0x2
ffffffffa0800adc:	0040182d 	move	v1,v0
ffffffffa0800ae0:	000310b8 	dsll	v0,v1,0x2
ffffffffa0800ae4:	0043102f 	dsubu	v0,v0,v1
ffffffffa0800ae8:	0044102f 	dsubu	v0,v0,a0
ffffffffa0800aec:	000210b8 	dsll	v0,v0,0x2
ffffffffa0800af0:	0044102f 	dsubu	v0,v0,a0
ffffffffa0800af4:	00021138 	dsll	v0,v0,0x4
ffffffffa0800af8:	64c375f0 	daddiu	v1,a2,30192
ffffffffa0800afc:	0043102d 	daddu	v0,v0,v1
ffffffffa0800b00:	ac450228 	sw	a1,552(v0)
ffffffffa0800b04:	3c020000 	lui	v0,0x0
ffffffffa0800b08:	64420000 	daddiu	v0,v0,0
ffffffffa0800b0c:	00021438 	dsll	v0,v0,0x10
ffffffffa0800b10:	6442a080 	daddiu	v0,v0,-24448
ffffffffa0800b14:	00021438 	dsll	v0,v0,0x10
ffffffffa0800b18:	8fc30004 	lw	v1,4(s8)
ffffffffa0800b1c:	000318f8 	dsll	v1,v1,0x3
ffffffffa0800b20:	64425960 	daddiu	v0,v0,22880
ffffffffa0800b24:	0062102d 	daddu	v0,v1,v0
ffffffffa0800b28:	dc420000 	ld	v0,0(v0)
ffffffffa0800b2c:	dc450020 	ld	a1,32(v0)
ffffffffa0800b30:	3c060000 	lui	a2,0x0
ffffffffa0800b34:	64c60000 	daddiu	a2,a2,0
ffffffffa0800b38:	00063438 	dsll	a2,a2,0x10
ffffffffa0800b3c:	64c6a080 	daddiu	a2,a2,-24448
ffffffffa0800b40:	00063438 	dsll	a2,a2,0x10
ffffffffa0800b44:	8fc40000 	lw	a0,0(s8)
ffffffffa0800b48:	0080182d 	move	v1,a0
ffffffffa0800b4c:	000310b8 	dsll	v0,v1,0x2
ffffffffa0800b50:	0040182d 	move	v1,v0
ffffffffa0800b54:	000310b8 	dsll	v0,v1,0x2
ffffffffa0800b58:	0043102f 	dsubu	v0,v0,v1
ffffffffa0800b5c:	0044102f 	dsubu	v0,v0,a0
ffffffffa0800b60:	000210b8 	dsll	v0,v0,0x2
ffffffffa0800b64:	0044102f 	dsubu	v0,v0,a0
ffffffffa0800b68:	00021138 	dsll	v0,v0,0x4
ffffffffa0800b6c:	64c375f0 	daddiu	v1,a2,30192
ffffffffa0800b70:	0043102d 	daddu	v0,v0,v1
ffffffffa0800b74:	fc450240 	sd	a1,576(v0)
ffffffffa0800b78:	3c050000 	lui	a1,0x0
ffffffffa0800b7c:	64a50000 	daddiu	a1,a1,0
ffffffffa0800b80:	00052c38 	dsll	a1,a1,0x10
ffffffffa0800b84:	64a5a080 	daddiu	a1,a1,-24448
ffffffffa0800b88:	00052c38 	dsll	a1,a1,0x10
ffffffffa0800b8c:	8fc40000 	lw	a0,0(s8)
ffffffffa0800b90:	0080182d 	move	v1,a0
ffffffffa0800b94:	000310b8 	dsll	v0,v1,0x2
ffffffffa0800b98:	0040182d 	move	v1,v0
ffffffffa0800b9c:	000310b8 	dsll	v0,v1,0x2
ffffffffa0800ba0:	0043102f 	dsubu	v0,v0,v1
ffffffffa0800ba4:	0044102f 	dsubu	v0,v0,a0
ffffffffa0800ba8:	000210b8 	dsll	v0,v0,0x2
ffffffffa0800bac:	0044102f 	dsubu	v0,v0,a0
ffffffffa0800bb0:	00021138 	dsll	v0,v0,0x4
ffffffffa0800bb4:	64a375f0 	daddiu	v1,a1,30192
ffffffffa0800bb8:	0043102d 	daddu	v0,v0,v1
ffffffffa0800bbc:	fc400260 	sd	zero,608(v0)
ffffffffa0800bc0:	3c050000 	lui	a1,0x0
ffffffffa0800bc4:	64a50000 	daddiu	a1,a1,0
ffffffffa0800bc8:	00052c38 	dsll	a1,a1,0x10
ffffffffa0800bcc:	64a5a080 	daddiu	a1,a1,-24448
ffffffffa0800bd0:	00052c38 	dsll	a1,a1,0x10
ffffffffa0800bd4:	8fc40000 	lw	a0,0(s8)
ffffffffa0800bd8:	0080182d 	move	v1,a0
ffffffffa0800bdc:	000310b8 	dsll	v0,v1,0x2
ffffffffa0800be0:	0040182d 	move	v1,v0
ffffffffa0800be4:	000310b8 	dsll	v0,v1,0x2
ffffffffa0800be8:	0043102f 	dsubu	v0,v0,v1
ffffffffa0800bec:	0044102f 	dsubu	v0,v0,a0
ffffffffa0800bf0:	000210b8 	dsll	v0,v0,0x2
ffffffffa0800bf4:	0044102f 	dsubu	v0,v0,a0
ffffffffa0800bf8:	00021138 	dsll	v0,v0,0x4
ffffffffa0800bfc:	64a375f0 	daddiu	v1,a1,30192
ffffffffa0800c00:	0043102d 	daddu	v0,v0,v1
ffffffffa0800c04:	fc400268 	sd	zero,616(v0)
ffffffffa0800c08:	3c050000 	lui	a1,0x0
ffffffffa0800c0c:	64a50000 	daddiu	a1,a1,0
ffffffffa0800c10:	00052c38 	dsll	a1,a1,0x10
ffffffffa0800c14:	64a5a080 	daddiu	a1,a1,-24448
ffffffffa0800c18:	00052c38 	dsll	a1,a1,0x10
ffffffffa0800c1c:	8fc40000 	lw	a0,0(s8)
ffffffffa0800c20:	0080182d 	move	v1,a0
ffffffffa0800c24:	000310b8 	dsll	v0,v1,0x2
ffffffffa0800c28:	0040182d 	move	v1,v0
ffffffffa0800c2c:	000310b8 	dsll	v0,v1,0x2
ffffffffa0800c30:	0043102f 	dsubu	v0,v0,v1
ffffffffa0800c34:	0044102f 	dsubu	v0,v0,a0
ffffffffa0800c38:	000210b8 	dsll	v0,v0,0x2
ffffffffa0800c3c:	0044102f 	dsubu	v0,v0,a0
ffffffffa0800c40:	00021138 	dsll	v0,v0,0x4
ffffffffa0800c44:	64a375f0 	daddiu	v1,a1,30192
ffffffffa0800c48:	0043102d 	daddu	v0,v0,v1
ffffffffa0800c4c:	24030001 	li	v1,1
ffffffffa0800c50:	ac430270 	sw	v1,624(v0)
ffffffffa0800c54:	8fc40000 	lw	a0,0(s8)
ffffffffa0800c58:	0080182d 	move	v1,a0
ffffffffa0800c5c:	000310b8 	dsll	v0,v1,0x2
ffffffffa0800c60:	0040182d 	move	v1,v0
ffffffffa0800c64:	000310b8 	dsll	v0,v1,0x2
ffffffffa0800c68:	0043102f 	dsubu	v0,v0,v1
ffffffffa0800c6c:	0044102f 	dsubu	v0,v0,a0
ffffffffa0800c70:	000210b8 	dsll	v0,v0,0x2
ffffffffa0800c74:	0044102f 	dsubu	v0,v0,a0
ffffffffa0800c78:	00021138 	dsll	v0,v0,0x4
ffffffffa0800c7c:	64430270 	daddiu	v1,v0,624
ffffffffa0800c80:	3c020000 	lui	v0,0x0
ffffffffa0800c84:	64420000 	daddiu	v0,v0,0
ffffffffa0800c88:	00021438 	dsll	v0,v0,0x10
ffffffffa0800c8c:	6442a080 	daddiu	v0,v0,-24448
ffffffffa0800c90:	00021438 	dsll	v0,v0,0x10
ffffffffa0800c94:	644275f0 	daddiu	v0,v0,30192
ffffffffa0800c98:	0062102d 	daddu	v0,v1,v0
ffffffffa0800c9c:	64440004 	daddiu	a0,v0,4
ffffffffa0800ca0:	3c020000 	lui	v0,0x0
ffffffffa0800ca4:	64420000 	daddiu	v0,v0,0
ffffffffa0800ca8:	00021438 	dsll	v0,v0,0x10
ffffffffa0800cac:	6442a080 	daddiu	v0,v0,-24448
ffffffffa0800cb0:	00021438 	dsll	v0,v0,0x10
ffffffffa0800cb4:	8fc30004 	lw	v1,4(s8)
ffffffffa0800cb8:	000318f8 	dsll	v1,v1,0x3
ffffffffa0800cbc:	64425960 	daddiu	v0,v0,22880
ffffffffa0800cc0:	0062102d 	daddu	v0,v1,v0
ffffffffa0800cc4:	dc420000 	ld	v0,0(v0)
ffffffffa0800cc8:	0040282d 	move	a1,v0
ffffffffa0800ccc:	0c200e93 	jal	ffffffffa0803a4c <strcpy>
ffffffffa0800cd0:	00000000 	nop
ffffffffa0800cd4:	3c020000 	lui	v0,0x0
ffffffffa0800cd8:	64420000 	daddiu	v0,v0,0
ffffffffa0800cdc:	00021438 	dsll	v0,v0,0x10
ffffffffa0800ce0:	6442a080 	daddiu	v0,v0,-24448
ffffffffa0800ce4:	00021438 	dsll	v0,v0,0x10
ffffffffa0800ce8:	8c4558b0 	lw	a1,22704(v0)
ffffffffa0800cec:	24a20001 	addiu	v0,a1,1
ffffffffa0800cf0:	0040182d 	move	v1,v0
ffffffffa0800cf4:	3c020000 	lui	v0,0x0
ffffffffa0800cf8:	64420000 	daddiu	v0,v0,0
ffffffffa0800cfc:	00021438 	dsll	v0,v0,0x10
ffffffffa0800d00:	6442a080 	daddiu	v0,v0,-24448
ffffffffa0800d04:	00021438 	dsll	v0,v0,0x10
ffffffffa0800d08:	ac4358b0 	sw	v1,22704(v0)
ffffffffa0800d0c:	3c060000 	lui	a2,0x0
ffffffffa0800d10:	64c60000 	daddiu	a2,a2,0
ffffffffa0800d14:	00063438 	dsll	a2,a2,0x10
ffffffffa0800d18:	64c6a080 	daddiu	a2,a2,-24448
ffffffffa0800d1c:	00063438 	dsll	a2,a2,0x10
ffffffffa0800d20:	8fc40000 	lw	a0,0(s8)
ffffffffa0800d24:	0080182d 	move	v1,a0
ffffffffa0800d28:	000310b8 	dsll	v0,v1,0x2
ffffffffa0800d2c:	0040182d 	move	v1,v0
ffffffffa0800d30:	000310b8 	dsll	v0,v1,0x2
ffffffffa0800d34:	0043102f 	dsubu	v0,v0,v1
ffffffffa0800d38:	0044102f 	dsubu	v0,v0,a0
ffffffffa0800d3c:	000210b8 	dsll	v0,v0,0x2
ffffffffa0800d40:	0044102f 	dsubu	v0,v0,a0
ffffffffa0800d44:	00021138 	dsll	v0,v0,0x4
ffffffffa0800d48:	64c375f0 	daddiu	v1,a2,30192
ffffffffa0800d4c:	0043102d 	daddu	v0,v0,v1
ffffffffa0800d50:	ac450294 	sw	a1,660(v0)
ffffffffa0800d54:	3c020000 	lui	v0,0x0
ffffffffa0800d58:	64420000 	daddiu	v0,v0,0
ffffffffa0800d5c:	00021438 	dsll	v0,v0,0x10
ffffffffa0800d60:	6442a080 	daddiu	v0,v0,-24448
ffffffffa0800d64:	00021438 	dsll	v0,v0,0x10
ffffffffa0800d68:	8fc30004 	lw	v1,4(s8)
ffffffffa0800d6c:	000318f8 	dsll	v1,v1,0x3
ffffffffa0800d70:	64425960 	daddiu	v0,v0,22880
ffffffffa0800d74:	0062102d 	daddu	v0,v1,v0
ffffffffa0800d78:	dc420000 	ld	v0,0(v0)
ffffffffa0800d7c:	8c450028 	lw	a1,40(v0)
ffffffffa0800d80:	3c060000 	lui	a2,0x0
ffffffffa0800d84:	64c60000 	daddiu	a2,a2,0
ffffffffa0800d88:	00063438 	dsll	a2,a2,0x10
ffffffffa0800d8c:	64c6a080 	daddiu	a2,a2,-24448
ffffffffa0800d90:	00063438 	dsll	a2,a2,0x10
ffffffffa0800d94:	8fc40000 	lw	a0,0(s8)
ffffffffa0800d98:	0080182d 	move	v1,a0
ffffffffa0800d9c:	000310b8 	dsll	v0,v1,0x2
ffffffffa0800da0:	0040182d 	move	v1,v0
ffffffffa0800da4:	000310b8 	dsll	v0,v1,0x2
ffffffffa0800da8:	0043102f 	dsubu	v0,v0,v1
ffffffffa0800dac:	0044102f 	dsubu	v0,v0,a0
ffffffffa0800db0:	000210b8 	dsll	v0,v0,0x2
ffffffffa0800db4:	0044102f 	dsubu	v0,v0,a0
ffffffffa0800db8:	00021138 	dsll	v0,v0,0x4
ffffffffa0800dbc:	64c375f0 	daddiu	v1,a2,30192
ffffffffa0800dc0:	0043102d 	daddu	v0,v0,v1
ffffffffa0800dc4:	ac450298 	sw	a1,664(v0)
ffffffffa0800dc8:	3c050000 	lui	a1,0x0
ffffffffa0800dcc:	64a50000 	daddiu	a1,a1,0
ffffffffa0800dd0:	00052c38 	dsll	a1,a1,0x10
ffffffffa0800dd4:	64a5a080 	daddiu	a1,a1,-24448
ffffffffa0800dd8:	00052c38 	dsll	a1,a1,0x10
ffffffffa0800ddc:	8fc40000 	lw	a0,0(s8)
ffffffffa0800de0:	0080182d 	move	v1,a0
ffffffffa0800de4:	000310b8 	dsll	v0,v1,0x2
ffffffffa0800de8:	0040182d 	move	v1,v0
ffffffffa0800dec:	000310b8 	dsll	v0,v1,0x2
ffffffffa0800df0:	0043102f 	dsubu	v0,v0,v1
ffffffffa0800df4:	0044102f 	dsubu	v0,v0,a0
ffffffffa0800df8:	000210b8 	dsll	v0,v0,0x2
ffffffffa0800dfc:	0044102f 	dsubu	v0,v0,a0
ffffffffa0800e00:	00021138 	dsll	v0,v0,0x4
ffffffffa0800e04:	64a375f0 	daddiu	v1,a1,30192
ffffffffa0800e08:	0043102d 	daddu	v0,v0,v1
ffffffffa0800e0c:	24030002 	li	v1,2
ffffffffa0800e10:	ac43029c 	sw	v1,668(v0)
ffffffffa0800e14:	3c050000 	lui	a1,0x0
ffffffffa0800e18:	64a50000 	daddiu	a1,a1,0
ffffffffa0800e1c:	00052c38 	dsll	a1,a1,0x10
ffffffffa0800e20:	64a5a080 	daddiu	a1,a1,-24448
ffffffffa0800e24:	00052c38 	dsll	a1,a1,0x10
ffffffffa0800e28:	8fc40000 	lw	a0,0(s8)
ffffffffa0800e2c:	0080182d 	move	v1,a0
ffffffffa0800e30:	000310b8 	dsll	v0,v1,0x2
ffffffffa0800e34:	0040182d 	move	v1,v0
ffffffffa0800e38:	000310b8 	dsll	v0,v1,0x2
ffffffffa0800e3c:	0043102f 	dsubu	v0,v0,v1
ffffffffa0800e40:	0044102f 	dsubu	v0,v0,a0
ffffffffa0800e44:	000210b8 	dsll	v0,v0,0x2
ffffffffa0800e48:	0044102f 	dsubu	v0,v0,a0
ffffffffa0800e4c:	00021138 	dsll	v0,v0,0x4
ffffffffa0800e50:	64a375f0 	daddiu	v1,a1,30192
ffffffffa0800e54:	0043102d 	daddu	v0,v0,v1
ffffffffa0800e58:	ac4002a0 	sw	zero,672(v0)
ffffffffa0800e5c:	3c050000 	lui	a1,0x0
ffffffffa0800e60:	64a50000 	daddiu	a1,a1,0
ffffffffa0800e64:	00052c38 	dsll	a1,a1,0x10
ffffffffa0800e68:	64a5a080 	daddiu	a1,a1,-24448
ffffffffa0800e6c:	00052c38 	dsll	a1,a1,0x10
ffffffffa0800e70:	8fc40000 	lw	a0,0(s8)
ffffffffa0800e74:	0080182d 	move	v1,a0
ffffffffa0800e78:	000310b8 	dsll	v0,v1,0x2
ffffffffa0800e7c:	0040182d 	move	v1,v0
ffffffffa0800e80:	000310b8 	dsll	v0,v1,0x2
ffffffffa0800e84:	0043102f 	dsubu	v0,v0,v1
ffffffffa0800e88:	0044102f 	dsubu	v0,v0,a0
ffffffffa0800e8c:	000210b8 	dsll	v0,v0,0x2
ffffffffa0800e90:	0044102f 	dsubu	v0,v0,a0
ffffffffa0800e94:	00021138 	dsll	v0,v0,0x4
ffffffffa0800e98:	64a375f0 	daddiu	v1,a1,30192
ffffffffa0800e9c:	0043102d 	daddu	v0,v0,v1
ffffffffa0800ea0:	ac4002a4 	sw	zero,676(v0)
ffffffffa0800ea4:	3c050000 	lui	a1,0x0
ffffffffa0800ea8:	64a50000 	daddiu	a1,a1,0
ffffffffa0800eac:	00052c38 	dsll	a1,a1,0x10
ffffffffa0800eb0:	64a5a080 	daddiu	a1,a1,-24448
ffffffffa0800eb4:	00052c38 	dsll	a1,a1,0x10
ffffffffa0800eb8:	8fc40000 	lw	a0,0(s8)
ffffffffa0800ebc:	0080182d 	move	v1,a0
ffffffffa0800ec0:	000310b8 	dsll	v0,v1,0x2
ffffffffa0800ec4:	0040182d 	move	v1,v0
ffffffffa0800ec8:	000310b8 	dsll	v0,v1,0x2
ffffffffa0800ecc:	0043102f 	dsubu	v0,v0,v1
ffffffffa0800ed0:	0044102f 	dsubu	v0,v0,a0
ffffffffa0800ed4:	000210b8 	dsll	v0,v0,0x2
ffffffffa0800ed8:	0044102f 	dsubu	v0,v0,a0
ffffffffa0800edc:	00021138 	dsll	v0,v0,0x4
ffffffffa0800ee0:	64a375f0 	daddiu	v1,a1,30192
ffffffffa0800ee4:	0043102d 	daddu	v0,v0,v1
ffffffffa0800ee8:	ac4002a8 	sw	zero,680(v0)
ffffffffa0800eec:	3c050000 	lui	a1,0x0
ffffffffa0800ef0:	64a50000 	daddiu	a1,a1,0
ffffffffa0800ef4:	00052c38 	dsll	a1,a1,0x10
ffffffffa0800ef8:	64a5a080 	daddiu	a1,a1,-24448
ffffffffa0800efc:	00052c38 	dsll	a1,a1,0x10
ffffffffa0800f00:	8fc40000 	lw	a0,0(s8)
ffffffffa0800f04:	0080182d 	move	v1,a0
ffffffffa0800f08:	000310b8 	dsll	v0,v1,0x2
ffffffffa0800f0c:	0040182d 	move	v1,v0
ffffffffa0800f10:	000310b8 	dsll	v0,v1,0x2
ffffffffa0800f14:	0043102f 	dsubu	v0,v0,v1
ffffffffa0800f18:	0044102f 	dsubu	v0,v0,a0
ffffffffa0800f1c:	000210b8 	dsll	v0,v0,0x2
ffffffffa0800f20:	0044102f 	dsubu	v0,v0,a0
ffffffffa0800f24:	00021138 	dsll	v0,v0,0x4
ffffffffa0800f28:	64a375f0 	daddiu	v1,a1,30192
ffffffffa0800f2c:	0043102d 	daddu	v0,v0,v1
ffffffffa0800f30:	ac4002ac 	sw	zero,684(v0)
ffffffffa0800f34:	8fc40000 	lw	a0,0(s8)
ffffffffa0800f38:	0080182d 	move	v1,a0
ffffffffa0800f3c:	000310b8 	dsll	v0,v1,0x2
ffffffffa0800f40:	0040182d 	move	v1,v0
ffffffffa0800f44:	000310b8 	dsll	v0,v1,0x2
ffffffffa0800f48:	0043102f 	dsubu	v0,v0,v1
ffffffffa0800f4c:	0044102f 	dsubu	v0,v0,a0
ffffffffa0800f50:	000210b8 	dsll	v0,v0,0x2
ffffffffa0800f54:	0044102f 	dsubu	v0,v0,a0
ffffffffa0800f58:	00021138 	dsll	v0,v0,0x4
ffffffffa0800f5c:	3c030000 	lui	v1,0x0
ffffffffa0800f60:	64630000 	daddiu	v1,v1,0
ffffffffa0800f64:	00031c38 	dsll	v1,v1,0x10
ffffffffa0800f68:	6463a080 	daddiu	v1,v1,-24448
ffffffffa0800f6c:	00031c38 	dsll	v1,v1,0x10
ffffffffa0800f70:	646375f0 	daddiu	v1,v1,30192
ffffffffa0800f74:	0043182d 	daddu	v1,v0,v1
ffffffffa0800f78:	3c020000 	lui	v0,0x0
ffffffffa0800f7c:	64420000 	daddiu	v0,v0,0
ffffffffa0800f80:	00021438 	dsll	v0,v0,0x10
ffffffffa0800f84:	6442a080 	daddiu	v0,v0,-24448
ffffffffa0800f88:	00021438 	dsll	v0,v0,0x10
ffffffffa0800f8c:	644475d8 	daddiu	a0,v0,30168
ffffffffa0800f90:	0060282d 	move	a1,v1
ffffffffa0800f94:	0c200874 	jal	ffffffffa08021d0 <queue_push>
ffffffffa0800f98:	00000000 	nop
ffffffffa0800f9c:	8fc20004 	lw	v0,4(s8)
ffffffffa0800fa0:	24420001 	addiu	v0,v0,1
ffffffffa0800fa4:	afc20004 	sw	v0,4(s8)
ffffffffa0800fa8:	8fc20000 	lw	v0,0(s8)
ffffffffa0800fac:	24420001 	addiu	v0,v0,1
ffffffffa0800fb0:	afc20000 	sw	v0,0(s8)
ffffffffa0800fb4:	3c020000 	lui	v0,0x0
ffffffffa0800fb8:	64420000 	daddiu	v0,v0,0
ffffffffa0800fbc:	00021438 	dsll	v0,v0,0x10
ffffffffa0800fc0:	6442a080 	daddiu	v0,v0,-24448
ffffffffa0800fc4:	00021438 	dsll	v0,v0,0x10
ffffffffa0800fc8:	8c4259e0 	lw	v0,23008(v0)
ffffffffa0800fcc:	8fc30004 	lw	v1,4(s8)
ffffffffa0800fd0:	0062102a 	slt	v0,v1,v0
ffffffffa0800fd4:	1440fd9c 	bnez	v0,ffffffffa0800648 <init_pcb+0xd8>
ffffffffa0800fd8:	00000000 	nop
ffffffffa0800fdc:	afc00004 	sw	zero,4(s8)
ffffffffa0800fe0:	08200655 	j	ffffffffa0801954 <init_pcb+0x13e4>
ffffffffa0800fe4:	00000000 	nop
ffffffffa0800fe8:	8fc40000 	lw	a0,0(s8)
ffffffffa0800fec:	0080182d 	move	v1,a0
ffffffffa0800ff0:	000310b8 	dsll	v0,v1,0x2
ffffffffa0800ff4:	0040182d 	move	v1,v0
ffffffffa0800ff8:	000310b8 	dsll	v0,v1,0x2
ffffffffa0800ffc:	0043102f 	dsubu	v0,v0,v1
ffffffffa0801000:	0044102f 	dsubu	v0,v0,a0
ffffffffa0801004:	000210b8 	dsll	v0,v0,0x2
ffffffffa0801008:	0044102f 	dsubu	v0,v0,a0
ffffffffa080100c:	00021138 	dsll	v0,v0,0x4
ffffffffa0801010:	3c030000 	lui	v1,0x0
ffffffffa0801014:	64630000 	daddiu	v1,v1,0
ffffffffa0801018:	00031c38 	dsll	v1,v1,0x10
ffffffffa080101c:	6463a080 	daddiu	v1,v1,-24448
ffffffffa0801020:	00031c38 	dsll	v1,v1,0x10
ffffffffa0801024:	646375f0 	daddiu	v1,v1,30192
ffffffffa0801028:	0043102d 	daddu	v0,v0,v1
ffffffffa080102c:	0040202d 	move	a0,v0
ffffffffa0801030:	24050128 	li	a1,296
ffffffffa0801034:	0c200e09 	jal	ffffffffa0803824 <bzero>
ffffffffa0801038:	00000000 	nop
ffffffffa080103c:	3c020000 	lui	v0,0x0
ffffffffa0801040:	64420000 	daddiu	v0,v0,0
ffffffffa0801044:	00021438 	dsll	v0,v0,0x10
ffffffffa0801048:	6442a080 	daddiu	v0,v0,-24448
ffffffffa080104c:	00021438 	dsll	v0,v0,0x10
ffffffffa0801050:	dc4558a0 	ld	a1,22688(v0)
ffffffffa0801054:	3c060000 	lui	a2,0x0
ffffffffa0801058:	64c60000 	daddiu	a2,a2,0
ffffffffa080105c:	00063438 	dsll	a2,a2,0x10
ffffffffa0801060:	64c6a080 	daddiu	a2,a2,-24448
ffffffffa0801064:	00063438 	dsll	a2,a2,0x10
ffffffffa0801068:	8fc40000 	lw	a0,0(s8)
ffffffffa080106c:	0080182d 	move	v1,a0
ffffffffa0801070:	000310b8 	dsll	v0,v1,0x2
ffffffffa0801074:	0040182d 	move	v1,v0
ffffffffa0801078:	000310b8 	dsll	v0,v1,0x2
ffffffffa080107c:	0043102f 	dsubu	v0,v0,v1
ffffffffa0801080:	0044102f 	dsubu	v0,v0,a0
ffffffffa0801084:	000210b8 	dsll	v0,v0,0x2
ffffffffa0801088:	0044102f 	dsubu	v0,v0,a0
ffffffffa080108c:	00021138 	dsll	v0,v0,0x4
ffffffffa0801090:	64c375f0 	daddiu	v1,a2,30192
ffffffffa0801094:	0043102d 	daddu	v0,v0,v1
ffffffffa0801098:	fc450250 	sd	a1,592(v0)
ffffffffa080109c:	3c020000 	lui	v0,0x0
ffffffffa08010a0:	64420000 	daddiu	v0,v0,0
ffffffffa08010a4:	00021438 	dsll	v0,v0,0x10
ffffffffa08010a8:	6442a080 	daddiu	v0,v0,-24448
ffffffffa08010ac:	00021438 	dsll	v0,v0,0x10
ffffffffa08010b0:	dc4558a0 	ld	a1,22688(v0)
ffffffffa08010b4:	3c060000 	lui	a2,0x0
ffffffffa08010b8:	64c60000 	daddiu	a2,a2,0
ffffffffa08010bc:	00063438 	dsll	a2,a2,0x10
ffffffffa08010c0:	64c6a080 	daddiu	a2,a2,-24448
ffffffffa08010c4:	00063438 	dsll	a2,a2,0x10
ffffffffa08010c8:	8fc40000 	lw	a0,0(s8)
ffffffffa08010cc:	0080182d 	move	v1,a0
ffffffffa08010d0:	000310b8 	dsll	v0,v1,0x2
ffffffffa08010d4:	0040182d 	move	v1,v0
ffffffffa08010d8:	000310b8 	dsll	v0,v1,0x2
ffffffffa08010dc:	0043102f 	dsubu	v0,v0,v1
ffffffffa08010e0:	0044102f 	dsubu	v0,v0,a0
ffffffffa08010e4:	000210b8 	dsll	v0,v0,0x2
ffffffffa08010e8:	0044102f 	dsubu	v0,v0,a0
ffffffffa08010ec:	00021138 	dsll	v0,v0,0x4
ffffffffa08010f0:	64c375f0 	daddiu	v1,a2,30192
ffffffffa08010f4:	0043102d 	daddu	v0,v0,v1
ffffffffa08010f8:	fc4500e8 	sd	a1,232(v0)
ffffffffa08010fc:	3c020000 	lui	v0,0x0
ffffffffa0801100:	64420000 	daddiu	v0,v0,0
ffffffffa0801104:	00021438 	dsll	v0,v0,0x10
ffffffffa0801108:	6442a080 	daddiu	v0,v0,-24448
ffffffffa080110c:	00021438 	dsll	v0,v0,0x10
ffffffffa0801110:	dc4358a0 	ld	v1,22688(v0)
ffffffffa0801114:	3c02ffff 	lui	v0,0xffff
ffffffffa0801118:	0062182d 	daddu	v1,v1,v0
ffffffffa080111c:	3c020000 	lui	v0,0x0
ffffffffa0801120:	64420000 	daddiu	v0,v0,0
ffffffffa0801124:	00021438 	dsll	v0,v0,0x10
ffffffffa0801128:	6442a080 	daddiu	v0,v0,-24448
ffffffffa080112c:	00021438 	dsll	v0,v0,0x10
ffffffffa0801130:	fc4358a0 	sd	v1,22688(v0)
ffffffffa0801134:	3c020000 	lui	v0,0x0
ffffffffa0801138:	64420000 	daddiu	v0,v0,0
ffffffffa080113c:	00021438 	dsll	v0,v0,0x10
ffffffffa0801140:	6442a080 	daddiu	v0,v0,-24448
ffffffffa0801144:	00021438 	dsll	v0,v0,0x10
ffffffffa0801148:	8fc30004 	lw	v1,4(s8)
ffffffffa080114c:	000318f8 	dsll	v1,v1,0x3
ffffffffa0801150:	64425a48 	daddiu	v0,v0,23112
ffffffffa0801154:	0062102d 	daddu	v0,v1,v0
ffffffffa0801158:	dc420000 	ld	v0,0(v0)
ffffffffa080115c:	dc450020 	ld	a1,32(v0)
ffffffffa0801160:	3c060000 	lui	a2,0x0
ffffffffa0801164:	64c60000 	daddiu	a2,a2,0
ffffffffa0801168:	00063438 	dsll	a2,a2,0x10
ffffffffa080116c:	64c6a080 	daddiu	a2,a2,-24448
ffffffffa0801170:	00063438 	dsll	a2,a2,0x10
ffffffffa0801174:	8fc40000 	lw	a0,0(s8)
ffffffffa0801178:	0080182d 	move	v1,a0
ffffffffa080117c:	000310b8 	dsll	v0,v1,0x2
ffffffffa0801180:	0040182d 	move	v1,v0
ffffffffa0801184:	000310b8 	dsll	v0,v1,0x2
ffffffffa0801188:	0043102f 	dsubu	v0,v0,v1
ffffffffa080118c:	0044102f 	dsubu	v0,v0,a0
ffffffffa0801190:	000210b8 	dsll	v0,v0,0x2
ffffffffa0801194:	0044102f 	dsubu	v0,v0,a0
ffffffffa0801198:	00021138 	dsll	v0,v0,0x4
ffffffffa080119c:	64c375f0 	daddiu	v1,a2,30192
ffffffffa08011a0:	0043102d 	daddu	v0,v0,v1
ffffffffa08011a4:	fc4500f8 	sd	a1,248(v0)
ffffffffa08011a8:	3c020000 	lui	v0,0x0
ffffffffa08011ac:	64420000 	daddiu	v0,v0,0
ffffffffa08011b0:	00021438 	dsll	v0,v0,0x10
ffffffffa08011b4:	6442a080 	daddiu	v0,v0,-24448
ffffffffa08011b8:	00021438 	dsll	v0,v0,0x10
ffffffffa08011bc:	8c4574c0 	lw	a1,29888(v0)
ffffffffa08011c0:	3c060000 	lui	a2,0x0
ffffffffa08011c4:	64c60000 	daddiu	a2,a2,0
ffffffffa08011c8:	00063438 	dsll	a2,a2,0x10
ffffffffa08011cc:	64c6a080 	daddiu	a2,a2,-24448
ffffffffa08011d0:	00063438 	dsll	a2,a2,0x10
ffffffffa08011d4:	8fc40000 	lw	a0,0(s8)
ffffffffa08011d8:	0080182d 	move	v1,a0
ffffffffa08011dc:	000310b8 	dsll	v0,v1,0x2
ffffffffa08011e0:	0040182d 	move	v1,v0
ffffffffa08011e4:	000310b8 	dsll	v0,v1,0x2
ffffffffa08011e8:	0043102f 	dsubu	v0,v0,v1
ffffffffa08011ec:	0044102f 	dsubu	v0,v0,a0
ffffffffa08011f0:	000210b8 	dsll	v0,v0,0x2
ffffffffa08011f4:	0044102f 	dsubu	v0,v0,a0
ffffffffa08011f8:	00021138 	dsll	v0,v0,0x4
ffffffffa08011fc:	64c375f0 	daddiu	v1,a2,30192
ffffffffa0801200:	0043102d 	daddu	v0,v0,v1
ffffffffa0801204:	ac450100 	sw	a1,256(v0)
ffffffffa0801208:	3c020000 	lui	v0,0x0
ffffffffa080120c:	64420000 	daddiu	v0,v0,0
ffffffffa0801210:	00021438 	dsll	v0,v0,0x10
ffffffffa0801214:	6442a080 	daddiu	v0,v0,-24448
ffffffffa0801218:	00021438 	dsll	v0,v0,0x10
ffffffffa080121c:	8fc30004 	lw	v1,4(s8)
ffffffffa0801220:	000318f8 	dsll	v1,v1,0x3
ffffffffa0801224:	64425a48 	daddiu	v0,v0,23112
ffffffffa0801228:	0062102d 	daddu	v0,v1,v0
ffffffffa080122c:	dc420000 	ld	v0,0(v0)
ffffffffa0801230:	dc450020 	ld	a1,32(v0)
ffffffffa0801234:	3c060000 	lui	a2,0x0
ffffffffa0801238:	64c60000 	daddiu	a2,a2,0
ffffffffa080123c:	00063438 	dsll	a2,a2,0x10
ffffffffa0801240:	64c6a080 	daddiu	a2,a2,-24448
ffffffffa0801244:	00063438 	dsll	a2,a2,0x10
ffffffffa0801248:	8fc40000 	lw	a0,0(s8)
ffffffffa080124c:	0080182d 	move	v1,a0
ffffffffa0801250:	000310b8 	dsll	v0,v1,0x2
ffffffffa0801254:	0040182d 	move	v1,v0
ffffffffa0801258:	000310b8 	dsll	v0,v1,0x2
ffffffffa080125c:	0043102f 	dsubu	v0,v0,v1
ffffffffa0801260:	0044102f 	dsubu	v0,v0,a0
ffffffffa0801264:	000210b8 	dsll	v0,v0,0x2
ffffffffa0801268:	0044102f 	dsubu	v0,v0,a0
ffffffffa080126c:	00021138 	dsll	v0,v0,0x4
ffffffffa0801270:	64c375f0 	daddiu	v1,a2,30192
ffffffffa0801274:	0043102d 	daddu	v0,v0,v1
ffffffffa0801278:	fc450118 	sd	a1,280(v0)
ffffffffa080127c:	8fc40000 	lw	a0,0(s8)
ffffffffa0801280:	0080182d 	move	v1,a0
ffffffffa0801284:	000310b8 	dsll	v0,v1,0x2
ffffffffa0801288:	0040182d 	move	v1,v0
ffffffffa080128c:	000310b8 	dsll	v0,v1,0x2
ffffffffa0801290:	0043102f 	dsubu	v0,v0,v1
ffffffffa0801294:	0044102f 	dsubu	v0,v0,a0
ffffffffa0801298:	000210b8 	dsll	v0,v0,0x2
ffffffffa080129c:	0044102f 	dsubu	v0,v0,a0
ffffffffa08012a0:	00021138 	dsll	v0,v0,0x4
ffffffffa08012a4:	64430120 	daddiu	v1,v0,288
ffffffffa08012a8:	3c020000 	lui	v0,0x0
ffffffffa08012ac:	64420000 	daddiu	v0,v0,0
ffffffffa08012b0:	00021438 	dsll	v0,v0,0x10
ffffffffa08012b4:	6442a080 	daddiu	v0,v0,-24448
ffffffffa08012b8:	00021438 	dsll	v0,v0,0x10
ffffffffa08012bc:	644275f0 	daddiu	v0,v0,30192
ffffffffa08012c0:	0062102d 	daddu	v0,v1,v0
ffffffffa08012c4:	64420008 	daddiu	v0,v0,8
ffffffffa08012c8:	0040202d 	move	a0,v0
ffffffffa08012cc:	24050128 	li	a1,296
ffffffffa08012d0:	0c200e09 	jal	ffffffffa0803824 <bzero>
ffffffffa08012d4:	00000000 	nop
ffffffffa08012d8:	3c020000 	lui	v0,0x0
ffffffffa08012dc:	64420000 	daddiu	v0,v0,0
ffffffffa08012e0:	00021438 	dsll	v0,v0,0x10
ffffffffa08012e4:	6442a080 	daddiu	v0,v0,-24448
ffffffffa08012e8:	00021438 	dsll	v0,v0,0x10
ffffffffa08012ec:	dc4558a0 	ld	a1,22688(v0)
ffffffffa08012f0:	3c060000 	lui	a2,0x0
ffffffffa08012f4:	64c60000 	daddiu	a2,a2,0
ffffffffa08012f8:	00063438 	dsll	a2,a2,0x10
ffffffffa08012fc:	64c6a080 	daddiu	a2,a2,-24448
ffffffffa0801300:	00063438 	dsll	a2,a2,0x10
ffffffffa0801304:	8fc40000 	lw	a0,0(s8)
ffffffffa0801308:	0080182d 	move	v1,a0
ffffffffa080130c:	000310b8 	dsll	v0,v1,0x2
ffffffffa0801310:	0040182d 	move	v1,v0
ffffffffa0801314:	000310b8 	dsll	v0,v1,0x2
ffffffffa0801318:	0043102f 	dsubu	v0,v0,v1
ffffffffa080131c:	0044102f 	dsubu	v0,v0,a0
ffffffffa0801320:	000210b8 	dsll	v0,v0,0x2
ffffffffa0801324:	0044102f 	dsubu	v0,v0,a0
ffffffffa0801328:	00021138 	dsll	v0,v0,0x4
ffffffffa080132c:	64c375f0 	daddiu	v1,a2,30192
ffffffffa0801330:	0043102d 	daddu	v0,v0,v1
ffffffffa0801334:	fc450258 	sd	a1,600(v0)
ffffffffa0801338:	3c020000 	lui	v0,0x0
ffffffffa080133c:	64420000 	daddiu	v0,v0,0
ffffffffa0801340:	00021438 	dsll	v0,v0,0x10
ffffffffa0801344:	6442a080 	daddiu	v0,v0,-24448
ffffffffa0801348:	00021438 	dsll	v0,v0,0x10
ffffffffa080134c:	dc4558a0 	ld	a1,22688(v0)
ffffffffa0801350:	3c060000 	lui	a2,0x0
ffffffffa0801354:	64c60000 	daddiu	a2,a2,0
ffffffffa0801358:	00063438 	dsll	a2,a2,0x10
ffffffffa080135c:	64c6a080 	daddiu	a2,a2,-24448
ffffffffa0801360:	00063438 	dsll	a2,a2,0x10
ffffffffa0801364:	8fc40000 	lw	a0,0(s8)
ffffffffa0801368:	0080182d 	move	v1,a0
ffffffffa080136c:	000310b8 	dsll	v0,v1,0x2
ffffffffa0801370:	0040182d 	move	v1,v0
ffffffffa0801374:	000310b8 	dsll	v0,v1,0x2
ffffffffa0801378:	0043102f 	dsubu	v0,v0,v1
ffffffffa080137c:	0044102f 	dsubu	v0,v0,a0
ffffffffa0801380:	000210b8 	dsll	v0,v0,0x2
ffffffffa0801384:	0044102f 	dsubu	v0,v0,a0
ffffffffa0801388:	00021138 	dsll	v0,v0,0x4
ffffffffa080138c:	64c375f0 	daddiu	v1,a2,30192
ffffffffa0801390:	0043102d 	daddu	v0,v0,v1
ffffffffa0801394:	fc450210 	sd	a1,528(v0)
ffffffffa0801398:	3c020000 	lui	v0,0x0
ffffffffa080139c:	64420000 	daddiu	v0,v0,0
ffffffffa08013a0:	00021438 	dsll	v0,v0,0x10
ffffffffa08013a4:	6442a080 	daddiu	v0,v0,-24448
ffffffffa08013a8:	00021438 	dsll	v0,v0,0x10
ffffffffa08013ac:	dc4358a0 	ld	v1,22688(v0)
ffffffffa08013b0:	3c02ffff 	lui	v0,0xffff
ffffffffa08013b4:	0062182d 	daddu	v1,v1,v0
ffffffffa08013b8:	3c020000 	lui	v0,0x0
ffffffffa08013bc:	64420000 	daddiu	v0,v0,0
ffffffffa08013c0:	00021438 	dsll	v0,v0,0x10
ffffffffa08013c4:	6442a080 	daddiu	v0,v0,-24448
ffffffffa08013c8:	00021438 	dsll	v0,v0,0x10
ffffffffa08013cc:	fc4358a0 	sd	v1,22688(v0)
ffffffffa08013d0:	3c020000 	lui	v0,0x0
ffffffffa08013d4:	64420000 	daddiu	v0,v0,0
ffffffffa08013d8:	00021438 	dsll	v0,v0,0x10
ffffffffa08013dc:	6442a080 	daddiu	v0,v0,-24448
ffffffffa08013e0:	00021438 	dsll	v0,v0,0x10
ffffffffa08013e4:	8fc30004 	lw	v1,4(s8)
ffffffffa08013e8:	000318f8 	dsll	v1,v1,0x3
ffffffffa08013ec:	64425a48 	daddiu	v0,v0,23112
ffffffffa08013f0:	0062102d 	daddu	v0,v1,v0
ffffffffa08013f4:	dc420000 	ld	v0,0(v0)
ffffffffa08013f8:	dc450020 	ld	a1,32(v0)
ffffffffa08013fc:	3c060000 	lui	a2,0x0
ffffffffa0801400:	64c60000 	daddiu	a2,a2,0
ffffffffa0801404:	00063438 	dsll	a2,a2,0x10
ffffffffa0801408:	64c6a080 	daddiu	a2,a2,-24448
ffffffffa080140c:	00063438 	dsll	a2,a2,0x10
ffffffffa0801410:	8fc40000 	lw	a0,0(s8)
ffffffffa0801414:	0080182d 	move	v1,a0
ffffffffa0801418:	000310b8 	dsll	v0,v1,0x2
ffffffffa080141c:	0040182d 	move	v1,v0
ffffffffa0801420:	000310b8 	dsll	v0,v1,0x2
ffffffffa0801424:	0043102f 	dsubu	v0,v0,v1
ffffffffa0801428:	0044102f 	dsubu	v0,v0,a0
ffffffffa080142c:	000210b8 	dsll	v0,v0,0x2
ffffffffa0801430:	0044102f 	dsubu	v0,v0,a0
ffffffffa0801434:	00021138 	dsll	v0,v0,0x4
ffffffffa0801438:	64c375f0 	daddiu	v1,a2,30192
ffffffffa080143c:	0043102d 	daddu	v0,v0,v1
ffffffffa0801440:	fc450220 	sd	a1,544(v0)
ffffffffa0801444:	3c020000 	lui	v0,0x0
ffffffffa0801448:	64420000 	daddiu	v0,v0,0
ffffffffa080144c:	00021438 	dsll	v0,v0,0x10
ffffffffa0801450:	6442a080 	daddiu	v0,v0,-24448
ffffffffa0801454:	00021438 	dsll	v0,v0,0x10
ffffffffa0801458:	8c4574c0 	lw	a1,29888(v0)
ffffffffa080145c:	3c060000 	lui	a2,0x0
ffffffffa0801460:	64c60000 	daddiu	a2,a2,0
ffffffffa0801464:	00063438 	dsll	a2,a2,0x10
ffffffffa0801468:	64c6a080 	daddiu	a2,a2,-24448
ffffffffa080146c:	00063438 	dsll	a2,a2,0x10
ffffffffa0801470:	8fc40000 	lw	a0,0(s8)
ffffffffa0801474:	0080182d 	move	v1,a0
ffffffffa0801478:	000310b8 	dsll	v0,v1,0x2
ffffffffa080147c:	0040182d 	move	v1,v0
ffffffffa0801480:	000310b8 	dsll	v0,v1,0x2
ffffffffa0801484:	0043102f 	dsubu	v0,v0,v1
ffffffffa0801488:	0044102f 	dsubu	v0,v0,a0
ffffffffa080148c:	000210b8 	dsll	v0,v0,0x2
ffffffffa0801490:	0044102f 	dsubu	v0,v0,a0
ffffffffa0801494:	00021138 	dsll	v0,v0,0x4
ffffffffa0801498:	64c375f0 	daddiu	v1,a2,30192
ffffffffa080149c:	0043102d 	daddu	v0,v0,v1
ffffffffa08014a0:	ac450228 	sw	a1,552(v0)
ffffffffa08014a4:	3c020000 	lui	v0,0x0
ffffffffa08014a8:	64420000 	daddiu	v0,v0,0
ffffffffa08014ac:	00021438 	dsll	v0,v0,0x10
ffffffffa08014b0:	6442a080 	daddiu	v0,v0,-24448
ffffffffa08014b4:	00021438 	dsll	v0,v0,0x10
ffffffffa08014b8:	8fc30004 	lw	v1,4(s8)
ffffffffa08014bc:	000318f8 	dsll	v1,v1,0x3
ffffffffa08014c0:	64425a48 	daddiu	v0,v0,23112
ffffffffa08014c4:	0062102d 	daddu	v0,v1,v0
ffffffffa08014c8:	dc420000 	ld	v0,0(v0)
ffffffffa08014cc:	dc450020 	ld	a1,32(v0)
ffffffffa08014d0:	3c060000 	lui	a2,0x0
ffffffffa08014d4:	64c60000 	daddiu	a2,a2,0
ffffffffa08014d8:	00063438 	dsll	a2,a2,0x10
ffffffffa08014dc:	64c6a080 	daddiu	a2,a2,-24448
ffffffffa08014e0:	00063438 	dsll	a2,a2,0x10
ffffffffa08014e4:	8fc40000 	lw	a0,0(s8)
ffffffffa08014e8:	0080182d 	move	v1,a0
ffffffffa08014ec:	000310b8 	dsll	v0,v1,0x2
ffffffffa08014f0:	0040182d 	move	v1,v0
ffffffffa08014f4:	000310b8 	dsll	v0,v1,0x2
ffffffffa08014f8:	0043102f 	dsubu	v0,v0,v1
ffffffffa08014fc:	0044102f 	dsubu	v0,v0,a0
ffffffffa0801500:	000210b8 	dsll	v0,v0,0x2
ffffffffa0801504:	0044102f 	dsubu	v0,v0,a0
ffffffffa0801508:	00021138 	dsll	v0,v0,0x4
ffffffffa080150c:	64c375f0 	daddiu	v1,a2,30192
ffffffffa0801510:	0043102d 	daddu	v0,v0,v1
ffffffffa0801514:	fc450240 	sd	a1,576(v0)
ffffffffa0801518:	3c050000 	lui	a1,0x0
ffffffffa080151c:	64a50000 	daddiu	a1,a1,0
ffffffffa0801520:	00052c38 	dsll	a1,a1,0x10
ffffffffa0801524:	64a5a080 	daddiu	a1,a1,-24448
ffffffffa0801528:	00052c38 	dsll	a1,a1,0x10
ffffffffa080152c:	8fc40000 	lw	a0,0(s8)
ffffffffa0801530:	0080182d 	move	v1,a0
ffffffffa0801534:	000310b8 	dsll	v0,v1,0x2
ffffffffa0801538:	0040182d 	move	v1,v0
ffffffffa080153c:	000310b8 	dsll	v0,v1,0x2
ffffffffa0801540:	0043102f 	dsubu	v0,v0,v1
ffffffffa0801544:	0044102f 	dsubu	v0,v0,a0
ffffffffa0801548:	000210b8 	dsll	v0,v0,0x2
ffffffffa080154c:	0044102f 	dsubu	v0,v0,a0
ffffffffa0801550:	00021138 	dsll	v0,v0,0x4
ffffffffa0801554:	64a375f0 	daddiu	v1,a1,30192
ffffffffa0801558:	0043102d 	daddu	v0,v0,v1
ffffffffa080155c:	fc400260 	sd	zero,608(v0)
ffffffffa0801560:	3c050000 	lui	a1,0x0
ffffffffa0801564:	64a50000 	daddiu	a1,a1,0
ffffffffa0801568:	00052c38 	dsll	a1,a1,0x10
ffffffffa080156c:	64a5a080 	daddiu	a1,a1,-24448
ffffffffa0801570:	00052c38 	dsll	a1,a1,0x10
ffffffffa0801574:	8fc40000 	lw	a0,0(s8)
ffffffffa0801578:	0080182d 	move	v1,a0
ffffffffa080157c:	000310b8 	dsll	v0,v1,0x2
ffffffffa0801580:	0040182d 	move	v1,v0
ffffffffa0801584:	000310b8 	dsll	v0,v1,0x2
ffffffffa0801588:	0043102f 	dsubu	v0,v0,v1
ffffffffa080158c:	0044102f 	dsubu	v0,v0,a0
ffffffffa0801590:	000210b8 	dsll	v0,v0,0x2
ffffffffa0801594:	0044102f 	dsubu	v0,v0,a0
ffffffffa0801598:	00021138 	dsll	v0,v0,0x4
ffffffffa080159c:	64a375f0 	daddiu	v1,a1,30192
ffffffffa08015a0:	0043102d 	daddu	v0,v0,v1
ffffffffa08015a4:	fc400268 	sd	zero,616(v0)
ffffffffa08015a8:	3c050000 	lui	a1,0x0
ffffffffa08015ac:	64a50000 	daddiu	a1,a1,0
ffffffffa08015b0:	00052c38 	dsll	a1,a1,0x10
ffffffffa08015b4:	64a5a080 	daddiu	a1,a1,-24448
ffffffffa08015b8:	00052c38 	dsll	a1,a1,0x10
ffffffffa08015bc:	8fc40000 	lw	a0,0(s8)
ffffffffa08015c0:	0080182d 	move	v1,a0
ffffffffa08015c4:	000310b8 	dsll	v0,v1,0x2
ffffffffa08015c8:	0040182d 	move	v1,v0
ffffffffa08015cc:	000310b8 	dsll	v0,v1,0x2
ffffffffa08015d0:	0043102f 	dsubu	v0,v0,v1
ffffffffa08015d4:	0044102f 	dsubu	v0,v0,a0
ffffffffa08015d8:	000210b8 	dsll	v0,v0,0x2
ffffffffa08015dc:	0044102f 	dsubu	v0,v0,a0
ffffffffa08015e0:	00021138 	dsll	v0,v0,0x4
ffffffffa08015e4:	64a375f0 	daddiu	v1,a1,30192
ffffffffa08015e8:	0043102d 	daddu	v0,v0,v1
ffffffffa08015ec:	24030001 	li	v1,1
ffffffffa08015f0:	ac430270 	sw	v1,624(v0)
ffffffffa08015f4:	8fc40000 	lw	a0,0(s8)
ffffffffa08015f8:	0080182d 	move	v1,a0
ffffffffa08015fc:	000310b8 	dsll	v0,v1,0x2
ffffffffa0801600:	0040182d 	move	v1,v0
ffffffffa0801604:	000310b8 	dsll	v0,v1,0x2
ffffffffa0801608:	0043102f 	dsubu	v0,v0,v1
ffffffffa080160c:	0044102f 	dsubu	v0,v0,a0
ffffffffa0801610:	000210b8 	dsll	v0,v0,0x2
ffffffffa0801614:	0044102f 	dsubu	v0,v0,a0
ffffffffa0801618:	00021138 	dsll	v0,v0,0x4
ffffffffa080161c:	64430270 	daddiu	v1,v0,624
ffffffffa0801620:	3c020000 	lui	v0,0x0
ffffffffa0801624:	64420000 	daddiu	v0,v0,0
ffffffffa0801628:	00021438 	dsll	v0,v0,0x10
ffffffffa080162c:	6442a080 	daddiu	v0,v0,-24448
ffffffffa0801630:	00021438 	dsll	v0,v0,0x10
ffffffffa0801634:	644275f0 	daddiu	v0,v0,30192
ffffffffa0801638:	0062102d 	daddu	v0,v1,v0
ffffffffa080163c:	64440004 	daddiu	a0,v0,4
ffffffffa0801640:	3c020000 	lui	v0,0x0
ffffffffa0801644:	64420000 	daddiu	v0,v0,0
ffffffffa0801648:	00021438 	dsll	v0,v0,0x10
ffffffffa080164c:	6442a080 	daddiu	v0,v0,-24448
ffffffffa0801650:	00021438 	dsll	v0,v0,0x10
ffffffffa0801654:	8fc30004 	lw	v1,4(s8)
ffffffffa0801658:	000318f8 	dsll	v1,v1,0x3
ffffffffa080165c:	64425a48 	daddiu	v0,v0,23112
ffffffffa0801660:	0062102d 	daddu	v0,v1,v0
ffffffffa0801664:	dc420000 	ld	v0,0(v0)
ffffffffa0801668:	0040282d 	move	a1,v0
ffffffffa080166c:	0c200e93 	jal	ffffffffa0803a4c <strcpy>
ffffffffa0801670:	00000000 	nop
ffffffffa0801674:	3c020000 	lui	v0,0x0
ffffffffa0801678:	64420000 	daddiu	v0,v0,0
ffffffffa080167c:	00021438 	dsll	v0,v0,0x10
ffffffffa0801680:	6442a080 	daddiu	v0,v0,-24448
ffffffffa0801684:	00021438 	dsll	v0,v0,0x10
ffffffffa0801688:	8c4558b0 	lw	a1,22704(v0)
ffffffffa080168c:	24a20001 	addiu	v0,a1,1
ffffffffa0801690:	0040182d 	move	v1,v0
ffffffffa0801694:	3c020000 	lui	v0,0x0
ffffffffa0801698:	64420000 	daddiu	v0,v0,0
ffffffffa080169c:	00021438 	dsll	v0,v0,0x10
ffffffffa08016a0:	6442a080 	daddiu	v0,v0,-24448
ffffffffa08016a4:	00021438 	dsll	v0,v0,0x10
ffffffffa08016a8:	ac4358b0 	sw	v1,22704(v0)
ffffffffa08016ac:	3c060000 	lui	a2,0x0
ffffffffa08016b0:	64c60000 	daddiu	a2,a2,0
ffffffffa08016b4:	00063438 	dsll	a2,a2,0x10
ffffffffa08016b8:	64c6a080 	daddiu	a2,a2,-24448
ffffffffa08016bc:	00063438 	dsll	a2,a2,0x10
ffffffffa08016c0:	8fc40000 	lw	a0,0(s8)
ffffffffa08016c4:	0080182d 	move	v1,a0
ffffffffa08016c8:	000310b8 	dsll	v0,v1,0x2
ffffffffa08016cc:	0040182d 	move	v1,v0
ffffffffa08016d0:	000310b8 	dsll	v0,v1,0x2
ffffffffa08016d4:	0043102f 	dsubu	v0,v0,v1
ffffffffa08016d8:	0044102f 	dsubu	v0,v0,a0
ffffffffa08016dc:	000210b8 	dsll	v0,v0,0x2
ffffffffa08016e0:	0044102f 	dsubu	v0,v0,a0
ffffffffa08016e4:	00021138 	dsll	v0,v0,0x4
ffffffffa08016e8:	64c375f0 	daddiu	v1,a2,30192
ffffffffa08016ec:	0043102d 	daddu	v0,v0,v1
ffffffffa08016f0:	ac450294 	sw	a1,660(v0)
ffffffffa08016f4:	3c020000 	lui	v0,0x0
ffffffffa08016f8:	64420000 	daddiu	v0,v0,0
ffffffffa08016fc:	00021438 	dsll	v0,v0,0x10
ffffffffa0801700:	6442a080 	daddiu	v0,v0,-24448
ffffffffa0801704:	00021438 	dsll	v0,v0,0x10
ffffffffa0801708:	8fc30004 	lw	v1,4(s8)
ffffffffa080170c:	000318f8 	dsll	v1,v1,0x3
ffffffffa0801710:	64425a48 	daddiu	v0,v0,23112
ffffffffa0801714:	0062102d 	daddu	v0,v1,v0
ffffffffa0801718:	dc420000 	ld	v0,0(v0)
ffffffffa080171c:	8c450028 	lw	a1,40(v0)
ffffffffa0801720:	3c060000 	lui	a2,0x0
ffffffffa0801724:	64c60000 	daddiu	a2,a2,0
ffffffffa0801728:	00063438 	dsll	a2,a2,0x10
ffffffffa080172c:	64c6a080 	daddiu	a2,a2,-24448
ffffffffa0801730:	00063438 	dsll	a2,a2,0x10
ffffffffa0801734:	8fc40000 	lw	a0,0(s8)
ffffffffa0801738:	0080182d 	move	v1,a0
ffffffffa080173c:	000310b8 	dsll	v0,v1,0x2
ffffffffa0801740:	0040182d 	move	v1,v0
ffffffffa0801744:	000310b8 	dsll	v0,v1,0x2
ffffffffa0801748:	0043102f 	dsubu	v0,v0,v1
ffffffffa080174c:	0044102f 	dsubu	v0,v0,a0
ffffffffa0801750:	000210b8 	dsll	v0,v0,0x2
ffffffffa0801754:	0044102f 	dsubu	v0,v0,a0
ffffffffa0801758:	00021138 	dsll	v0,v0,0x4
ffffffffa080175c:	64c375f0 	daddiu	v1,a2,30192
ffffffffa0801760:	0043102d 	daddu	v0,v0,v1
ffffffffa0801764:	ac450298 	sw	a1,664(v0)
ffffffffa0801768:	3c050000 	lui	a1,0x0
ffffffffa080176c:	64a50000 	daddiu	a1,a1,0
ffffffffa0801770:	00052c38 	dsll	a1,a1,0x10
ffffffffa0801774:	64a5a080 	daddiu	a1,a1,-24448
ffffffffa0801778:	00052c38 	dsll	a1,a1,0x10
ffffffffa080177c:	8fc40000 	lw	a0,0(s8)
ffffffffa0801780:	0080182d 	move	v1,a0
ffffffffa0801784:	000310b8 	dsll	v0,v1,0x2
ffffffffa0801788:	0040182d 	move	v1,v0
ffffffffa080178c:	000310b8 	dsll	v0,v1,0x2
ffffffffa0801790:	0043102f 	dsubu	v0,v0,v1
ffffffffa0801794:	0044102f 	dsubu	v0,v0,a0
ffffffffa0801798:	000210b8 	dsll	v0,v0,0x2
ffffffffa080179c:	0044102f 	dsubu	v0,v0,a0
ffffffffa08017a0:	00021138 	dsll	v0,v0,0x4
ffffffffa08017a4:	64a375f0 	daddiu	v1,a1,30192
ffffffffa08017a8:	0043102d 	daddu	v0,v0,v1
ffffffffa08017ac:	24030002 	li	v1,2
ffffffffa08017b0:	ac43029c 	sw	v1,668(v0)
ffffffffa08017b4:	3c050000 	lui	a1,0x0
ffffffffa08017b8:	64a50000 	daddiu	a1,a1,0
ffffffffa08017bc:	00052c38 	dsll	a1,a1,0x10
ffffffffa08017c0:	64a5a080 	daddiu	a1,a1,-24448
ffffffffa08017c4:	00052c38 	dsll	a1,a1,0x10
ffffffffa08017c8:	8fc40000 	lw	a0,0(s8)
ffffffffa08017cc:	0080182d 	move	v1,a0
ffffffffa08017d0:	000310b8 	dsll	v0,v1,0x2
ffffffffa08017d4:	0040182d 	move	v1,v0
ffffffffa08017d8:	000310b8 	dsll	v0,v1,0x2
ffffffffa08017dc:	0043102f 	dsubu	v0,v0,v1
ffffffffa08017e0:	0044102f 	dsubu	v0,v0,a0
ffffffffa08017e4:	000210b8 	dsll	v0,v0,0x2
ffffffffa08017e8:	0044102f 	dsubu	v0,v0,a0
ffffffffa08017ec:	00021138 	dsll	v0,v0,0x4
ffffffffa08017f0:	64a375f0 	daddiu	v1,a1,30192
ffffffffa08017f4:	0043102d 	daddu	v0,v0,v1
ffffffffa08017f8:	ac4002a0 	sw	zero,672(v0)
ffffffffa08017fc:	3c050000 	lui	a1,0x0
ffffffffa0801800:	64a50000 	daddiu	a1,a1,0
ffffffffa0801804:	00052c38 	dsll	a1,a1,0x10
ffffffffa0801808:	64a5a080 	daddiu	a1,a1,-24448
ffffffffa080180c:	00052c38 	dsll	a1,a1,0x10
ffffffffa0801810:	8fc40000 	lw	a0,0(s8)
ffffffffa0801814:	0080182d 	move	v1,a0
ffffffffa0801818:	000310b8 	dsll	v0,v1,0x2
ffffffffa080181c:	0040182d 	move	v1,v0
ffffffffa0801820:	000310b8 	dsll	v0,v1,0x2
ffffffffa0801824:	0043102f 	dsubu	v0,v0,v1
ffffffffa0801828:	0044102f 	dsubu	v0,v0,a0
ffffffffa080182c:	000210b8 	dsll	v0,v0,0x2
ffffffffa0801830:	0044102f 	dsubu	v0,v0,a0
ffffffffa0801834:	00021138 	dsll	v0,v0,0x4
ffffffffa0801838:	64a375f0 	daddiu	v1,a1,30192
ffffffffa080183c:	0043102d 	daddu	v0,v0,v1
ffffffffa0801840:	ac4002a4 	sw	zero,676(v0)
ffffffffa0801844:	3c050000 	lui	a1,0x0
ffffffffa0801848:	64a50000 	daddiu	a1,a1,0
ffffffffa080184c:	00052c38 	dsll	a1,a1,0x10
ffffffffa0801850:	64a5a080 	daddiu	a1,a1,-24448
ffffffffa0801854:	00052c38 	dsll	a1,a1,0x10
ffffffffa0801858:	8fc40000 	lw	a0,0(s8)
ffffffffa080185c:	0080182d 	move	v1,a0
ffffffffa0801860:	000310b8 	dsll	v0,v1,0x2
ffffffffa0801864:	0040182d 	move	v1,v0
ffffffffa0801868:	000310b8 	dsll	v0,v1,0x2
ffffffffa080186c:	0043102f 	dsubu	v0,v0,v1
ffffffffa0801870:	0044102f 	dsubu	v0,v0,a0
ffffffffa0801874:	000210b8 	dsll	v0,v0,0x2
ffffffffa0801878:	0044102f 	dsubu	v0,v0,a0
ffffffffa080187c:	00021138 	dsll	v0,v0,0x4
ffffffffa0801880:	64a375f0 	daddiu	v1,a1,30192
ffffffffa0801884:	0043102d 	daddu	v0,v0,v1
ffffffffa0801888:	ac4002a8 	sw	zero,680(v0)
ffffffffa080188c:	3c050000 	lui	a1,0x0
ffffffffa0801890:	64a50000 	daddiu	a1,a1,0
ffffffffa0801894:	00052c38 	dsll	a1,a1,0x10
ffffffffa0801898:	64a5a080 	daddiu	a1,a1,-24448
ffffffffa080189c:	00052c38 	dsll	a1,a1,0x10
ffffffffa08018a0:	8fc40000 	lw	a0,0(s8)
ffffffffa08018a4:	0080182d 	move	v1,a0
ffffffffa08018a8:	000310b8 	dsll	v0,v1,0x2
ffffffffa08018ac:	0040182d 	move	v1,v0
ffffffffa08018b0:	000310b8 	dsll	v0,v1,0x2
ffffffffa08018b4:	0043102f 	dsubu	v0,v0,v1
ffffffffa08018b8:	0044102f 	dsubu	v0,v0,a0
ffffffffa08018bc:	000210b8 	dsll	v0,v0,0x2
ffffffffa08018c0:	0044102f 	dsubu	v0,v0,a0
ffffffffa08018c4:	00021138 	dsll	v0,v0,0x4
ffffffffa08018c8:	64a375f0 	daddiu	v1,a1,30192
ffffffffa08018cc:	0043102d 	daddu	v0,v0,v1
ffffffffa08018d0:	ac4002ac 	sw	zero,684(v0)
ffffffffa08018d4:	8fc40000 	lw	a0,0(s8)
ffffffffa08018d8:	0080182d 	move	v1,a0
ffffffffa08018dc:	000310b8 	dsll	v0,v1,0x2
ffffffffa08018e0:	0040182d 	move	v1,v0
ffffffffa08018e4:	000310b8 	dsll	v0,v1,0x2
ffffffffa08018e8:	0043102f 	dsubu	v0,v0,v1
ffffffffa08018ec:	0044102f 	dsubu	v0,v0,a0
ffffffffa08018f0:	000210b8 	dsll	v0,v0,0x2
ffffffffa08018f4:	0044102f 	dsubu	v0,v0,a0
ffffffffa08018f8:	00021138 	dsll	v0,v0,0x4
ffffffffa08018fc:	3c030000 	lui	v1,0x0
ffffffffa0801900:	64630000 	daddiu	v1,v1,0
ffffffffa0801904:	00031c38 	dsll	v1,v1,0x10
ffffffffa0801908:	6463a080 	daddiu	v1,v1,-24448
ffffffffa080190c:	00031c38 	dsll	v1,v1,0x10
ffffffffa0801910:	646375f0 	daddiu	v1,v1,30192
ffffffffa0801914:	0043182d 	daddu	v1,v0,v1
ffffffffa0801918:	3c020000 	lui	v0,0x0
ffffffffa080191c:	64420000 	daddiu	v0,v0,0
ffffffffa0801920:	00021438 	dsll	v0,v0,0x10
ffffffffa0801924:	6442a080 	daddiu	v0,v0,-24448
ffffffffa0801928:	00021438 	dsll	v0,v0,0x10
ffffffffa080192c:	644475d8 	daddiu	a0,v0,30168
ffffffffa0801930:	0060282d 	move	a1,v1
ffffffffa0801934:	0c200874 	jal	ffffffffa08021d0 <queue_push>
ffffffffa0801938:	00000000 	nop
ffffffffa080193c:	8fc20004 	lw	v0,4(s8)
ffffffffa0801940:	24420001 	addiu	v0,v0,1
ffffffffa0801944:	afc20004 	sw	v0,4(s8)
ffffffffa0801948:	8fc20000 	lw	v0,0(s8)
ffffffffa080194c:	24420001 	addiu	v0,v0,1
ffffffffa0801950:	afc20000 	sw	v0,0(s8)
ffffffffa0801954:	3c020000 	lui	v0,0x0
ffffffffa0801958:	64420000 	daddiu	v0,v0,0
ffffffffa080195c:	00021438 	dsll	v0,v0,0x10
ffffffffa0801960:	6442a080 	daddiu	v0,v0,-24448
ffffffffa0801964:	00021438 	dsll	v0,v0,0x10
ffffffffa0801968:	8c425ac8 	lw	v0,23240(v0)
ffffffffa080196c:	8fc30004 	lw	v1,4(s8)
ffffffffa0801970:	0062102a 	slt	v0,v1,v0
ffffffffa0801974:	1440fd9c 	bnez	v0,ffffffffa0800fe8 <init_pcb+0xa78>
ffffffffa0801978:	00000000 	nop
ffffffffa080197c:	3c020000 	lui	v0,0x0
ffffffffa0801980:	64420000 	daddiu	v0,v0,0
ffffffffa0801984:	00021438 	dsll	v0,v0,0x10
ffffffffa0801988:	6442a080 	daddiu	v0,v0,-24448
ffffffffa080198c:	00021438 	dsll	v0,v0,0x10
ffffffffa0801990:	3c030000 	lui	v1,0x0
ffffffffa0801994:	64630000 	daddiu	v1,v1,0
ffffffffa0801998:	00031c38 	dsll	v1,v1,0x10
ffffffffa080199c:	6463a080 	daddiu	v1,v1,-24448
ffffffffa08019a0:	00031c38 	dsll	v1,v1,0x10
ffffffffa08019a4:	646375f0 	daddiu	v1,v1,30192
ffffffffa08019a8:	fc4375e8 	sd	v1,30184(v0)
ffffffffa08019ac:	03c0e82d 	move	sp,s8
ffffffffa08019b0:	dfbf0018 	ld	ra,24(sp)
ffffffffa08019b4:	dfbe0010 	ld	s8,16(sp)
ffffffffa08019b8:	67bd0020 	daddiu	sp,sp,32
ffffffffa08019bc:	03e00008 	jr	ra
ffffffffa08019c0:	00000000 	nop

ffffffffa08019c4 <init_exception_handler>:
ffffffffa08019c4:	67bdfff0 	daddiu	sp,sp,-16
ffffffffa08019c8:	ffbe0008 	sd	s8,8(sp)
ffffffffa08019cc:	03a0f02d 	move	s8,sp
ffffffffa08019d0:	03c0e82d 	move	sp,s8
ffffffffa08019d4:	dfbe0008 	ld	s8,8(sp)
ffffffffa08019d8:	67bd0010 	daddiu	sp,sp,16
ffffffffa08019dc:	03e00008 	jr	ra
ffffffffa08019e0:	00000000 	nop

ffffffffa08019e4 <init_exception>:
ffffffffa08019e4:	67bdfff0 	daddiu	sp,sp,-16
ffffffffa08019e8:	ffbe0008 	sd	s8,8(sp)
ffffffffa08019ec:	03a0f02d 	move	s8,sp
ffffffffa08019f0:	03c0e82d 	move	sp,s8
ffffffffa08019f4:	dfbe0008 	ld	s8,8(sp)
ffffffffa08019f8:	67bd0010 	daddiu	sp,sp,16
ffffffffa08019fc:	03e00008 	jr	ra
ffffffffa0801a00:	00000000 	nop

ffffffffa0801a04 <init_syscall>:
ffffffffa0801a04:	67bdfff0 	daddiu	sp,sp,-16
ffffffffa0801a08:	ffbe0008 	sd	s8,8(sp)
ffffffffa0801a0c:	03a0f02d 	move	s8,sp
ffffffffa0801a10:	03c0e82d 	move	sp,s8
ffffffffa0801a14:	dfbe0008 	ld	s8,8(sp)
ffffffffa0801a18:	67bd0010 	daddiu	sp,sp,16
ffffffffa0801a1c:	03e00008 	jr	ra
ffffffffa0801a20:	00000000 	nop
	...

ffffffffa0801a30 <irq_timer>:
ffffffffa0801a30:	67bdfff0 	daddiu	sp,sp,-16
ffffffffa0801a34:	ffbf0008 	sd	ra,8(sp)
ffffffffa0801a38:	ffbe0000 	sd	s8,0(sp)
ffffffffa0801a3c:	03a0f02d 	move	s8,sp
ffffffffa0801a40:	0c200ba1 	jal	ffffffffa0802e84 <screen_reflush>
ffffffffa0801a44:	00000000 	nop
ffffffffa0801a48:	03c0e82d 	move	sp,s8
ffffffffa0801a4c:	dfbf0008 	ld	ra,8(sp)
ffffffffa0801a50:	dfbe0000 	ld	s8,0(sp)
ffffffffa0801a54:	67bd0010 	daddiu	sp,sp,16
ffffffffa0801a58:	03e00008 	jr	ra
ffffffffa0801a5c:	00000000 	nop

ffffffffa0801a60 <interrupt_helper>:
ffffffffa0801a60:	67bdffe0 	daddiu	sp,sp,-32
ffffffffa0801a64:	ffbe0018 	sd	s8,24(sp)
ffffffffa0801a68:	03a0f02d 	move	s8,sp
ffffffffa0801a6c:	0080182d 	move	v1,a0
ffffffffa0801a70:	00a0102d 	move	v0,a1
ffffffffa0801a74:	00031800 	sll	v1,v1,0x0
ffffffffa0801a78:	afc30000 	sw	v1,0(s8)
ffffffffa0801a7c:	00021000 	sll	v0,v0,0x0
ffffffffa0801a80:	afc20004 	sw	v0,4(s8)
ffffffffa0801a84:	03c0e82d 	move	sp,s8
ffffffffa0801a88:	dfbe0018 	ld	s8,24(sp)
ffffffffa0801a8c:	67bd0020 	daddiu	sp,sp,32
ffffffffa0801a90:	03e00008 	jr	ra
ffffffffa0801a94:	00000000 	nop

ffffffffa0801a98 <other_exception_handler>:
ffffffffa0801a98:	67bdfff0 	daddiu	sp,sp,-16
ffffffffa0801a9c:	ffbe0008 	sd	s8,8(sp)
ffffffffa0801aa0:	03a0f02d 	move	s8,sp
ffffffffa0801aa4:	03c0e82d 	move	sp,s8
ffffffffa0801aa8:	dfbe0008 	ld	s8,8(sp)
ffffffffa0801aac:	67bd0010 	daddiu	sp,sp,16
ffffffffa0801ab0:	03e00008 	jr	ra
ffffffffa0801ab4:	00000000 	nop
	...

ffffffffa0801ac0 <spin_lock_init>:
ffffffffa0801ac0:	67bdffe0 	daddiu	sp,sp,-32
ffffffffa0801ac4:	ffbe0018 	sd	s8,24(sp)
ffffffffa0801ac8:	03a0f02d 	move	s8,sp
ffffffffa0801acc:	ffc40000 	sd	a0,0(s8)
ffffffffa0801ad0:	dfc20000 	ld	v0,0(s8)
ffffffffa0801ad4:	ac400000 	sw	zero,0(v0)
ffffffffa0801ad8:	03c0e82d 	move	sp,s8
ffffffffa0801adc:	dfbe0018 	ld	s8,24(sp)
ffffffffa0801ae0:	67bd0020 	daddiu	sp,sp,32
ffffffffa0801ae4:	03e00008 	jr	ra
ffffffffa0801ae8:	00000000 	nop

ffffffffa0801aec <spin_lock_acquire>:
ffffffffa0801aec:	67bdffe0 	daddiu	sp,sp,-32
ffffffffa0801af0:	ffbe0018 	sd	s8,24(sp)
ffffffffa0801af4:	03a0f02d 	move	s8,sp
ffffffffa0801af8:	ffc40000 	sd	a0,0(s8)
ffffffffa0801afc:	00000000 	nop
ffffffffa0801b00:	dfc20000 	ld	v0,0(s8)
ffffffffa0801b04:	8c430000 	lw	v1,0(v0)
ffffffffa0801b08:	24020001 	li	v0,1
ffffffffa0801b0c:	1062fffc 	beq	v1,v0,ffffffffa0801b00 <spin_lock_acquire+0x14>
ffffffffa0801b10:	00000000 	nop
ffffffffa0801b14:	dfc20000 	ld	v0,0(s8)
ffffffffa0801b18:	24030001 	li	v1,1
ffffffffa0801b1c:	ac430000 	sw	v1,0(v0)
ffffffffa0801b20:	03c0e82d 	move	sp,s8
ffffffffa0801b24:	dfbe0018 	ld	s8,24(sp)
ffffffffa0801b28:	67bd0020 	daddiu	sp,sp,32
ffffffffa0801b2c:	03e00008 	jr	ra
ffffffffa0801b30:	00000000 	nop

ffffffffa0801b34 <spin_lock_release>:
ffffffffa0801b34:	67bdffe0 	daddiu	sp,sp,-32
ffffffffa0801b38:	ffbe0018 	sd	s8,24(sp)
ffffffffa0801b3c:	03a0f02d 	move	s8,sp
ffffffffa0801b40:	ffc40000 	sd	a0,0(s8)
ffffffffa0801b44:	dfc20000 	ld	v0,0(s8)
ffffffffa0801b48:	ac400000 	sw	zero,0(v0)
ffffffffa0801b4c:	03c0e82d 	move	sp,s8
ffffffffa0801b50:	dfbe0018 	ld	s8,24(sp)
ffffffffa0801b54:	67bd0020 	daddiu	sp,sp,32
ffffffffa0801b58:	03e00008 	jr	ra
ffffffffa0801b5c:	00000000 	nop

ffffffffa0801b60 <do_mutex_lock_init>:
ffffffffa0801b60:	67bdffe0 	daddiu	sp,sp,-32
ffffffffa0801b64:	ffbf0018 	sd	ra,24(sp)
ffffffffa0801b68:	ffbe0010 	sd	s8,16(sp)
ffffffffa0801b6c:	03a0f02d 	move	s8,sp
ffffffffa0801b70:	ffc40000 	sd	a0,0(s8)
ffffffffa0801b74:	dfc20000 	ld	v0,0(s8)
ffffffffa0801b78:	64420008 	daddiu	v0,v0,8
ffffffffa0801b7c:	0040202d 	move	a0,v0
ffffffffa0801b80:	0c200854 	jal	ffffffffa0802150 <queue_init>
ffffffffa0801b84:	00000000 	nop
ffffffffa0801b88:	dfc20000 	ld	v0,0(s8)
ffffffffa0801b8c:	ac400000 	sw	zero,0(v0)
ffffffffa0801b90:	03c0e82d 	move	sp,s8
ffffffffa0801b94:	dfbf0018 	ld	ra,24(sp)
ffffffffa0801b98:	dfbe0010 	ld	s8,16(sp)
ffffffffa0801b9c:	67bd0020 	daddiu	sp,sp,32
ffffffffa0801ba0:	03e00008 	jr	ra
ffffffffa0801ba4:	00000000 	nop

ffffffffa0801ba8 <do_mutex_lock_acquire>:
ffffffffa0801ba8:	67bdffe0 	daddiu	sp,sp,-32
ffffffffa0801bac:	ffbf0018 	sd	ra,24(sp)
ffffffffa0801bb0:	ffbe0010 	sd	s8,16(sp)
ffffffffa0801bb4:	03a0f02d 	move	s8,sp
ffffffffa0801bb8:	ffc40000 	sd	a0,0(s8)
ffffffffa0801bbc:	dfc20000 	ld	v0,0(s8)
ffffffffa0801bc0:	8c430000 	lw	v1,0(v0)
ffffffffa0801bc4:	24020001 	li	v0,1
ffffffffa0801bc8:	1462000a 	bne	v1,v0,ffffffffa0801bf4 <do_mutex_lock_acquire+0x4c>
ffffffffa0801bcc:	00000000 	nop
ffffffffa0801bd0:	dfc20000 	ld	v0,0(s8)
ffffffffa0801bd4:	64420008 	daddiu	v0,v0,8
ffffffffa0801bd8:	0040202d 	move	a0,v0
ffffffffa0801bdc:	0c2007cb 	jal	ffffffffa0801f2c <do_block>
ffffffffa0801be0:	00000000 	nop
ffffffffa0801be4:	0c20005a 	jal	ffffffffa0800168 <do_scheduler>
ffffffffa0801be8:	00000000 	nop
ffffffffa0801bec:	08200700 	j	ffffffffa0801c00 <do_mutex_lock_acquire+0x58>
ffffffffa0801bf0:	00000000 	nop
ffffffffa0801bf4:	dfc20000 	ld	v0,0(s8)
ffffffffa0801bf8:	24030001 	li	v1,1
ffffffffa0801bfc:	ac430000 	sw	v1,0(v0)
ffffffffa0801c00:	03c0e82d 	move	sp,s8
ffffffffa0801c04:	dfbf0018 	ld	ra,24(sp)
ffffffffa0801c08:	dfbe0010 	ld	s8,16(sp)
ffffffffa0801c0c:	67bd0020 	daddiu	sp,sp,32
ffffffffa0801c10:	03e00008 	jr	ra
ffffffffa0801c14:	00000000 	nop

ffffffffa0801c18 <do_mutex_lock_release>:
ffffffffa0801c18:	67bdffe0 	daddiu	sp,sp,-32
ffffffffa0801c1c:	ffbf0018 	sd	ra,24(sp)
ffffffffa0801c20:	ffbe0010 	sd	s8,16(sp)
ffffffffa0801c24:	03a0f02d 	move	s8,sp
ffffffffa0801c28:	ffc40000 	sd	a0,0(s8)
ffffffffa0801c2c:	dfc20000 	ld	v0,0(s8)
ffffffffa0801c30:	64420008 	daddiu	v0,v0,8
ffffffffa0801c34:	0040202d 	move	a0,v0
ffffffffa0801c38:	0c200863 	jal	ffffffffa080218c <queue_is_empty>
ffffffffa0801c3c:	00000000 	nop
ffffffffa0801c40:	14400008 	bnez	v0,ffffffffa0801c64 <do_mutex_lock_release+0x4c>
ffffffffa0801c44:	00000000 	nop
ffffffffa0801c48:	dfc20000 	ld	v0,0(s8)
ffffffffa0801c4c:	64420008 	daddiu	v0,v0,8
ffffffffa0801c50:	0040202d 	move	a0,v0
ffffffffa0801c54:	0c2007e7 	jal	ffffffffa0801f9c <do_unblock_one>
ffffffffa0801c58:	00000000 	nop
ffffffffa0801c5c:	0820071b 	j	ffffffffa0801c6c <do_mutex_lock_release+0x54>
ffffffffa0801c60:	00000000 	nop
ffffffffa0801c64:	dfc20000 	ld	v0,0(s8)
ffffffffa0801c68:	ac400000 	sw	zero,0(v0)
ffffffffa0801c6c:	03c0e82d 	move	sp,s8
ffffffffa0801c70:	dfbf0018 	ld	ra,24(sp)
ffffffffa0801c74:	dfbe0010 	ld	s8,16(sp)
ffffffffa0801c78:	67bd0020 	daddiu	sp,sp,32
ffffffffa0801c7c:	03e00008 	jr	ra
ffffffffa0801c80:	00000000 	nop
	...

ffffffffa0801c90 <init_stack>:
ffffffffa0801c90:	67bdfff0 	daddiu	sp,sp,-16
ffffffffa0801c94:	ffbe0008 	sd	s8,8(sp)
ffffffffa0801c98:	03a0f02d 	move	s8,sp
ffffffffa0801c9c:	03c0e82d 	move	sp,s8
ffffffffa0801ca0:	dfbe0008 	ld	s8,8(sp)
ffffffffa0801ca4:	67bd0010 	daddiu	sp,sp,16
ffffffffa0801ca8:	03e00008 	jr	ra
ffffffffa0801cac:	00000000 	nop

ffffffffa0801cb0 <new_kernel_stack>:
ffffffffa0801cb0:	67bdfff0 	daddiu	sp,sp,-16
ffffffffa0801cb4:	ffbe0008 	sd	s8,8(sp)
ffffffffa0801cb8:	03a0f02d 	move	s8,sp
ffffffffa0801cbc:	03c0e82d 	move	sp,s8
ffffffffa0801cc0:	dfbe0008 	ld	s8,8(sp)
ffffffffa0801cc4:	67bd0010 	daddiu	sp,sp,16
ffffffffa0801cc8:	03e00008 	jr	ra
ffffffffa0801ccc:	00000000 	nop

ffffffffa0801cd0 <new_user_stack>:
ffffffffa0801cd0:	67bdfff0 	daddiu	sp,sp,-16
ffffffffa0801cd4:	ffbe0008 	sd	s8,8(sp)
ffffffffa0801cd8:	03a0f02d 	move	s8,sp
ffffffffa0801cdc:	03c0e82d 	move	sp,s8
ffffffffa0801ce0:	dfbe0008 	ld	s8,8(sp)
ffffffffa0801ce4:	67bd0010 	daddiu	sp,sp,16
ffffffffa0801ce8:	03e00008 	jr	ra
ffffffffa0801cec:	00000000 	nop

ffffffffa0801cf0 <free_kernel_stack>:
ffffffffa0801cf0:	67bdffe0 	daddiu	sp,sp,-32
ffffffffa0801cf4:	ffbe0018 	sd	s8,24(sp)
ffffffffa0801cf8:	03a0f02d 	move	s8,sp
ffffffffa0801cfc:	ffc40000 	sd	a0,0(s8)
ffffffffa0801d00:	03c0e82d 	move	sp,s8
ffffffffa0801d04:	dfbe0018 	ld	s8,24(sp)
ffffffffa0801d08:	67bd0020 	daddiu	sp,sp,32
ffffffffa0801d0c:	03e00008 	jr	ra
ffffffffa0801d10:	00000000 	nop

ffffffffa0801d14 <free_user_stack>:
ffffffffa0801d14:	67bdffe0 	daddiu	sp,sp,-32
ffffffffa0801d18:	ffbe0018 	sd	s8,24(sp)
ffffffffa0801d1c:	03a0f02d 	move	s8,sp
ffffffffa0801d20:	ffc40000 	sd	a0,0(s8)
ffffffffa0801d24:	03c0e82d 	move	sp,s8
ffffffffa0801d28:	dfbe0018 	ld	s8,24(sp)
ffffffffa0801d2c:	67bd0020 	daddiu	sp,sp,32
ffffffffa0801d30:	03e00008 	jr	ra
ffffffffa0801d34:	00000000 	nop

ffffffffa0801d38 <set_pcb>:
ffffffffa0801d38:	67bdffd0 	daddiu	sp,sp,-48
ffffffffa0801d3c:	ffbe0028 	sd	s8,40(sp)
ffffffffa0801d40:	03a0f02d 	move	s8,sp
ffffffffa0801d44:	0080102d 	move	v0,a0
ffffffffa0801d48:	ffc50008 	sd	a1,8(s8)
ffffffffa0801d4c:	ffc60010 	sd	a2,16(s8)
ffffffffa0801d50:	00021000 	sll	v0,v0,0x0
ffffffffa0801d54:	afc20000 	sw	v0,0(s8)
ffffffffa0801d58:	03c0e82d 	move	sp,s8
ffffffffa0801d5c:	dfbe0028 	ld	s8,40(sp)
ffffffffa0801d60:	67bd0030 	daddiu	sp,sp,48
ffffffffa0801d64:	03e00008 	jr	ra
ffffffffa0801d68:	00000000 	nop

ffffffffa0801d6c <check_sleeping>:
ffffffffa0801d6c:	67bdfff0 	daddiu	sp,sp,-16
ffffffffa0801d70:	ffbe0008 	sd	s8,8(sp)
ffffffffa0801d74:	03a0f02d 	move	s8,sp
ffffffffa0801d78:	03c0e82d 	move	sp,s8
ffffffffa0801d7c:	dfbe0008 	ld	s8,8(sp)
ffffffffa0801d80:	67bd0010 	daddiu	sp,sp,16
ffffffffa0801d84:	03e00008 	jr	ra
ffffffffa0801d88:	00000000 	nop

ffffffffa0801d8c <scheduler>:
ffffffffa0801d8c:	67bdfff0 	daddiu	sp,sp,-16
ffffffffa0801d90:	ffbf0008 	sd	ra,8(sp)
ffffffffa0801d94:	ffbe0000 	sd	s8,0(sp)
ffffffffa0801d98:	03a0f02d 	move	s8,sp
ffffffffa0801d9c:	3c020000 	lui	v0,0x0
ffffffffa0801da0:	64420000 	daddiu	v0,v0,0
ffffffffa0801da4:	00021438 	dsll	v0,v0,0x10
ffffffffa0801da8:	6442a080 	daddiu	v0,v0,-24448
ffffffffa0801dac:	00021438 	dsll	v0,v0,0x10
ffffffffa0801db0:	dc4275e8 	ld	v0,30184(v0)
ffffffffa0801db4:	8c42029c 	lw	v0,668(v0)
ffffffffa0801db8:	10400022 	beqz	v0,ffffffffa0801e44 <scheduler+0xb8>
ffffffffa0801dbc:	00000000 	nop
ffffffffa0801dc0:	3c020000 	lui	v0,0x0
ffffffffa0801dc4:	64420000 	daddiu	v0,v0,0
ffffffffa0801dc8:	00021438 	dsll	v0,v0,0x10
ffffffffa0801dcc:	6442a080 	daddiu	v0,v0,-24448
ffffffffa0801dd0:	00021438 	dsll	v0,v0,0x10
ffffffffa0801dd4:	dc4275e8 	ld	v0,30184(v0)
ffffffffa0801dd8:	24030002 	li	v1,2
ffffffffa0801ddc:	ac43029c 	sw	v1,668(v0)
ffffffffa0801de0:	3c020000 	lui	v0,0x0
ffffffffa0801de4:	64420000 	daddiu	v0,v0,0
ffffffffa0801de8:	00021438 	dsll	v0,v0,0x10
ffffffffa0801dec:	6442a080 	daddiu	v0,v0,-24448
ffffffffa0801df0:	00021438 	dsll	v0,v0,0x10
ffffffffa0801df4:	dc4275e8 	ld	v0,30184(v0)
ffffffffa0801df8:	8c430294 	lw	v1,660(v0)
ffffffffa0801dfc:	24020001 	li	v0,1
ffffffffa0801e00:	10620010 	beq	v1,v0,ffffffffa0801e44 <scheduler+0xb8>
ffffffffa0801e04:	00000000 	nop
ffffffffa0801e08:	3c020000 	lui	v0,0x0
ffffffffa0801e0c:	64420000 	daddiu	v0,v0,0
ffffffffa0801e10:	00021438 	dsll	v0,v0,0x10
ffffffffa0801e14:	6442a080 	daddiu	v0,v0,-24448
ffffffffa0801e18:	00021438 	dsll	v0,v0,0x10
ffffffffa0801e1c:	dc4375e8 	ld	v1,30184(v0)
ffffffffa0801e20:	3c020000 	lui	v0,0x0
ffffffffa0801e24:	64420000 	daddiu	v0,v0,0
ffffffffa0801e28:	00021438 	dsll	v0,v0,0x10
ffffffffa0801e2c:	6442a080 	daddiu	v0,v0,-24448
ffffffffa0801e30:	00021438 	dsll	v0,v0,0x10
ffffffffa0801e34:	644475d8 	daddiu	a0,v0,30168
ffffffffa0801e38:	0060282d 	move	a1,v1
ffffffffa0801e3c:	0c200874 	jal	ffffffffa08021d0 <queue_push>
ffffffffa0801e40:	00000000 	nop
ffffffffa0801e44:	3c020000 	lui	v0,0x0
ffffffffa0801e48:	64420000 	daddiu	v0,v0,0
ffffffffa0801e4c:	00021438 	dsll	v0,v0,0x10
ffffffffa0801e50:	6442a080 	daddiu	v0,v0,-24448
ffffffffa0801e54:	00021438 	dsll	v0,v0,0x10
ffffffffa0801e58:	644475d8 	daddiu	a0,v0,30168
ffffffffa0801e5c:	0c200863 	jal	ffffffffa080218c <queue_is_empty>
ffffffffa0801e60:	00000000 	nop
ffffffffa0801e64:	14400010 	bnez	v0,ffffffffa0801ea8 <scheduler+0x11c>
ffffffffa0801e68:	00000000 	nop
ffffffffa0801e6c:	3c020000 	lui	v0,0x0
ffffffffa0801e70:	64420000 	daddiu	v0,v0,0
ffffffffa0801e74:	00021438 	dsll	v0,v0,0x10
ffffffffa0801e78:	6442a080 	daddiu	v0,v0,-24448
ffffffffa0801e7c:	00021438 	dsll	v0,v0,0x10
ffffffffa0801e80:	644475d8 	daddiu	a0,v0,30168
ffffffffa0801e84:	0c20089d 	jal	ffffffffa0802274 <queue_dequeue>
ffffffffa0801e88:	00000000 	nop
ffffffffa0801e8c:	0040182d 	move	v1,v0
ffffffffa0801e90:	3c020000 	lui	v0,0x0
ffffffffa0801e94:	64420000 	daddiu	v0,v0,0
ffffffffa0801e98:	00021438 	dsll	v0,v0,0x10
ffffffffa0801e9c:	6442a080 	daddiu	v0,v0,-24448
ffffffffa0801ea0:	00021438 	dsll	v0,v0,0x10
ffffffffa0801ea4:	fc4375e8 	sd	v1,30184(v0)
ffffffffa0801ea8:	3c020000 	lui	v0,0x0
ffffffffa0801eac:	64420000 	daddiu	v0,v0,0
ffffffffa0801eb0:	00021438 	dsll	v0,v0,0x10
ffffffffa0801eb4:	6442a080 	daddiu	v0,v0,-24448
ffffffffa0801eb8:	00021438 	dsll	v0,v0,0x10
ffffffffa0801ebc:	dc4275e8 	ld	v0,30184(v0)
ffffffffa0801ec0:	24030001 	li	v1,1
ffffffffa0801ec4:	ac43029c 	sw	v1,668(v0)
ffffffffa0801ec8:	03c0e82d 	move	sp,s8
ffffffffa0801ecc:	dfbf0008 	ld	ra,8(sp)
ffffffffa0801ed0:	dfbe0000 	ld	s8,0(sp)
ffffffffa0801ed4:	67bd0010 	daddiu	sp,sp,16
ffffffffa0801ed8:	03e00008 	jr	ra
ffffffffa0801edc:	00000000 	nop

ffffffffa0801ee0 <do_sleep>:
ffffffffa0801ee0:	67bdffe0 	daddiu	sp,sp,-32
ffffffffa0801ee4:	ffbe0018 	sd	s8,24(sp)
ffffffffa0801ee8:	03a0f02d 	move	s8,sp
ffffffffa0801eec:	0080102d 	move	v0,a0
ffffffffa0801ef0:	00021000 	sll	v0,v0,0x0
ffffffffa0801ef4:	afc20000 	sw	v0,0(s8)
ffffffffa0801ef8:	03c0e82d 	move	sp,s8
ffffffffa0801efc:	dfbe0018 	ld	s8,24(sp)
ffffffffa0801f00:	67bd0020 	daddiu	sp,sp,32
ffffffffa0801f04:	03e00008 	jr	ra
ffffffffa0801f08:	00000000 	nop

ffffffffa0801f0c <do_exit>:
ffffffffa0801f0c:	67bdfff0 	daddiu	sp,sp,-16
ffffffffa0801f10:	ffbe0008 	sd	s8,8(sp)
ffffffffa0801f14:	03a0f02d 	move	s8,sp
ffffffffa0801f18:	03c0e82d 	move	sp,s8
ffffffffa0801f1c:	dfbe0008 	ld	s8,8(sp)
ffffffffa0801f20:	67bd0010 	daddiu	sp,sp,16
ffffffffa0801f24:	03e00008 	jr	ra
ffffffffa0801f28:	00000000 	nop

ffffffffa0801f2c <do_block>:
ffffffffa0801f2c:	67bdffe0 	daddiu	sp,sp,-32
ffffffffa0801f30:	ffbf0018 	sd	ra,24(sp)
ffffffffa0801f34:	ffbe0010 	sd	s8,16(sp)
ffffffffa0801f38:	03a0f02d 	move	s8,sp
ffffffffa0801f3c:	ffc40000 	sd	a0,0(s8)
ffffffffa0801f40:	3c020000 	lui	v0,0x0
ffffffffa0801f44:	64420000 	daddiu	v0,v0,0
ffffffffa0801f48:	00021438 	dsll	v0,v0,0x10
ffffffffa0801f4c:	6442a080 	daddiu	v0,v0,-24448
ffffffffa0801f50:	00021438 	dsll	v0,v0,0x10
ffffffffa0801f54:	dc4275e8 	ld	v0,30184(v0)
ffffffffa0801f58:	ac40029c 	sw	zero,668(v0)
ffffffffa0801f5c:	3c020000 	lui	v0,0x0
ffffffffa0801f60:	64420000 	daddiu	v0,v0,0
ffffffffa0801f64:	00021438 	dsll	v0,v0,0x10
ffffffffa0801f68:	6442a080 	daddiu	v0,v0,-24448
ffffffffa0801f6c:	00021438 	dsll	v0,v0,0x10
ffffffffa0801f70:	dc4275e8 	ld	v0,30184(v0)
ffffffffa0801f74:	dfc40000 	ld	a0,0(s8)
ffffffffa0801f78:	0040282d 	move	a1,v0
ffffffffa0801f7c:	0c200874 	jal	ffffffffa08021d0 <queue_push>
ffffffffa0801f80:	00000000 	nop
ffffffffa0801f84:	03c0e82d 	move	sp,s8
ffffffffa0801f88:	dfbf0018 	ld	ra,24(sp)
ffffffffa0801f8c:	dfbe0010 	ld	s8,16(sp)
ffffffffa0801f90:	67bd0020 	daddiu	sp,sp,32
ffffffffa0801f94:	03e00008 	jr	ra
ffffffffa0801f98:	00000000 	nop

ffffffffa0801f9c <do_unblock_one>:
ffffffffa0801f9c:	67bdffd0 	daddiu	sp,sp,-48
ffffffffa0801fa0:	ffbf0028 	sd	ra,40(sp)
ffffffffa0801fa4:	ffbe0020 	sd	s8,32(sp)
ffffffffa0801fa8:	03a0f02d 	move	s8,sp
ffffffffa0801fac:	ffc40010 	sd	a0,16(s8)
ffffffffa0801fb0:	dfc40010 	ld	a0,16(s8)
ffffffffa0801fb4:	0c20089d 	jal	ffffffffa0802274 <queue_dequeue>
ffffffffa0801fb8:	00000000 	nop
ffffffffa0801fbc:	ffc20000 	sd	v0,0(s8)
ffffffffa0801fc0:	dfc20000 	ld	v0,0(s8)
ffffffffa0801fc4:	24030002 	li	v1,2
ffffffffa0801fc8:	ac43029c 	sw	v1,668(v0)
ffffffffa0801fcc:	3c020000 	lui	v0,0x0
ffffffffa0801fd0:	64420000 	daddiu	v0,v0,0
ffffffffa0801fd4:	00021438 	dsll	v0,v0,0x10
ffffffffa0801fd8:	6442a080 	daddiu	v0,v0,-24448
ffffffffa0801fdc:	00021438 	dsll	v0,v0,0x10
ffffffffa0801fe0:	644475d8 	daddiu	a0,v0,30168
ffffffffa0801fe4:	dfc50000 	ld	a1,0(s8)
ffffffffa0801fe8:	0c200874 	jal	ffffffffa08021d0 <queue_push>
ffffffffa0801fec:	00000000 	nop
ffffffffa0801ff0:	03c0e82d 	move	sp,s8
ffffffffa0801ff4:	dfbf0028 	ld	ra,40(sp)
ffffffffa0801ff8:	dfbe0020 	ld	s8,32(sp)
ffffffffa0801ffc:	67bd0030 	daddiu	sp,sp,48
ffffffffa0802000:	03e00008 	jr	ra
ffffffffa0802004:	00000000 	nop

ffffffffa0802008 <do_unblock_all>:
ffffffffa0802008:	67bdffd0 	daddiu	sp,sp,-48
ffffffffa080200c:	ffbf0028 	sd	ra,40(sp)
ffffffffa0802010:	ffbe0020 	sd	s8,32(sp)
ffffffffa0802014:	03a0f02d 	move	s8,sp
ffffffffa0802018:	ffc40010 	sd	a0,16(s8)
ffffffffa080201c:	08200819 	j	ffffffffa0802064 <do_unblock_all+0x5c>
ffffffffa0802020:	00000000 	nop
ffffffffa0802024:	dfc40010 	ld	a0,16(s8)
ffffffffa0802028:	0c20089d 	jal	ffffffffa0802274 <queue_dequeue>
ffffffffa080202c:	00000000 	nop
ffffffffa0802030:	ffc20000 	sd	v0,0(s8)
ffffffffa0802034:	dfc20000 	ld	v0,0(s8)
ffffffffa0802038:	24030002 	li	v1,2
ffffffffa080203c:	ac43029c 	sw	v1,668(v0)
ffffffffa0802040:	3c020000 	lui	v0,0x0
ffffffffa0802044:	64420000 	daddiu	v0,v0,0
ffffffffa0802048:	00021438 	dsll	v0,v0,0x10
ffffffffa080204c:	6442a080 	daddiu	v0,v0,-24448
ffffffffa0802050:	00021438 	dsll	v0,v0,0x10
ffffffffa0802054:	644475d8 	daddiu	a0,v0,30168
ffffffffa0802058:	dfc50000 	ld	a1,0(s8)
ffffffffa080205c:	0c200874 	jal	ffffffffa08021d0 <queue_push>
ffffffffa0802060:	00000000 	nop
ffffffffa0802064:	dfc40010 	ld	a0,16(s8)
ffffffffa0802068:	0c200863 	jal	ffffffffa080218c <queue_is_empty>
ffffffffa080206c:	00000000 	nop
ffffffffa0802070:	1040ffec 	beqz	v0,ffffffffa0802024 <do_unblock_all+0x1c>
ffffffffa0802074:	00000000 	nop
ffffffffa0802078:	03c0e82d 	move	sp,s8
ffffffffa080207c:	dfbf0028 	ld	ra,40(sp)
ffffffffa0802080:	dfbe0020 	ld	s8,32(sp)
ffffffffa0802084:	67bd0030 	daddiu	sp,sp,48
ffffffffa0802088:	03e00008 	jr	ra
ffffffffa080208c:	00000000 	nop

ffffffffa0802090 <do_spawn>:
ffffffffa0802090:	67bdffe0 	daddiu	sp,sp,-32
ffffffffa0802094:	ffbe0018 	sd	s8,24(sp)
ffffffffa0802098:	03a0f02d 	move	s8,sp
ffffffffa080209c:	ffc40000 	sd	a0,0(s8)
ffffffffa08020a0:	03c0e82d 	move	sp,s8
ffffffffa08020a4:	dfbe0018 	ld	s8,24(sp)
ffffffffa08020a8:	67bd0020 	daddiu	sp,sp,32
ffffffffa08020ac:	03e00008 	jr	ra
ffffffffa08020b0:	00000000 	nop

ffffffffa08020b4 <do_kill>:
ffffffffa08020b4:	67bdffe0 	daddiu	sp,sp,-32
ffffffffa08020b8:	ffbe0018 	sd	s8,24(sp)
ffffffffa08020bc:	03a0f02d 	move	s8,sp
ffffffffa08020c0:	0080102d 	move	v0,a0
ffffffffa08020c4:	00021000 	sll	v0,v0,0x0
ffffffffa08020c8:	afc20000 	sw	v0,0(s8)
ffffffffa08020cc:	03c0e82d 	move	sp,s8
ffffffffa08020d0:	dfbe0018 	ld	s8,24(sp)
ffffffffa08020d4:	67bd0020 	daddiu	sp,sp,32
ffffffffa08020d8:	03e00008 	jr	ra
ffffffffa08020dc:	00000000 	nop

ffffffffa08020e0 <do_waitpid>:
ffffffffa08020e0:	67bdffe0 	daddiu	sp,sp,-32
ffffffffa08020e4:	ffbe0018 	sd	s8,24(sp)
ffffffffa08020e8:	03a0f02d 	move	s8,sp
ffffffffa08020ec:	0080102d 	move	v0,a0
ffffffffa08020f0:	00021000 	sll	v0,v0,0x0
ffffffffa08020f4:	afc20000 	sw	v0,0(s8)
ffffffffa08020f8:	03c0e82d 	move	sp,s8
ffffffffa08020fc:	dfbe0018 	ld	s8,24(sp)
ffffffffa0802100:	67bd0020 	daddiu	sp,sp,32
ffffffffa0802104:	03e00008 	jr	ra
ffffffffa0802108:	00000000 	nop

ffffffffa080210c <do_process_show>:
ffffffffa080210c:	67bdfff0 	daddiu	sp,sp,-16
ffffffffa0802110:	ffbe0008 	sd	s8,8(sp)
ffffffffa0802114:	03a0f02d 	move	s8,sp
ffffffffa0802118:	03c0e82d 	move	sp,s8
ffffffffa080211c:	dfbe0008 	ld	s8,8(sp)
ffffffffa0802120:	67bd0010 	daddiu	sp,sp,16
ffffffffa0802124:	03e00008 	jr	ra
ffffffffa0802128:	00000000 	nop

ffffffffa080212c <do_getpid>:
ffffffffa080212c:	67bdfff0 	daddiu	sp,sp,-16
ffffffffa0802130:	ffbe0008 	sd	s8,8(sp)
ffffffffa0802134:	03a0f02d 	move	s8,sp
ffffffffa0802138:	03c0e82d 	move	sp,s8
ffffffffa080213c:	dfbe0008 	ld	s8,8(sp)
ffffffffa0802140:	67bd0010 	daddiu	sp,sp,16
ffffffffa0802144:	03e00008 	jr	ra
ffffffffa0802148:	00000000 	nop
ffffffffa080214c:	00000000 	nop

ffffffffa0802150 <queue_init>:
ffffffffa0802150:	67bdffe0 	daddiu	sp,sp,-32
ffffffffa0802154:	ffbe0018 	sd	s8,24(sp)
ffffffffa0802158:	03a0f02d 	move	s8,sp
ffffffffa080215c:	ffc40000 	sd	a0,0(s8)
ffffffffa0802160:	dfc20000 	ld	v0,0(s8)
ffffffffa0802164:	fc400008 	sd	zero,8(v0)
ffffffffa0802168:	dfc20000 	ld	v0,0(s8)
ffffffffa080216c:	dc430008 	ld	v1,8(v0)
ffffffffa0802170:	dfc20000 	ld	v0,0(s8)
ffffffffa0802174:	fc430000 	sd	v1,0(v0)
ffffffffa0802178:	03c0e82d 	move	sp,s8
ffffffffa080217c:	dfbe0018 	ld	s8,24(sp)
ffffffffa0802180:	67bd0020 	daddiu	sp,sp,32
ffffffffa0802184:	03e00008 	jr	ra
ffffffffa0802188:	00000000 	nop

ffffffffa080218c <queue_is_empty>:
ffffffffa080218c:	67bdffe0 	daddiu	sp,sp,-32
ffffffffa0802190:	ffbe0018 	sd	s8,24(sp)
ffffffffa0802194:	03a0f02d 	move	s8,sp
ffffffffa0802198:	ffc40000 	sd	a0,0(s8)
ffffffffa080219c:	dfc20000 	ld	v0,0(s8)
ffffffffa08021a0:	dc420000 	ld	v0,0(v0)
ffffffffa08021a4:	14400004 	bnez	v0,ffffffffa08021b8 <queue_is_empty+0x2c>
ffffffffa08021a8:	00000000 	nop
ffffffffa08021ac:	24020001 	li	v0,1
ffffffffa08021b0:	0820086f 	j	ffffffffa08021bc <queue_is_empty+0x30>
ffffffffa08021b4:	00000000 	nop
ffffffffa08021b8:	0000102d 	move	v0,zero
ffffffffa08021bc:	03c0e82d 	move	sp,s8
ffffffffa08021c0:	dfbe0018 	ld	s8,24(sp)
ffffffffa08021c4:	67bd0020 	daddiu	sp,sp,32
ffffffffa08021c8:	03e00008 	jr	ra
ffffffffa08021cc:	00000000 	nop

ffffffffa08021d0 <queue_push>:
ffffffffa08021d0:	67bdffd0 	daddiu	sp,sp,-48
ffffffffa08021d4:	ffbe0028 	sd	s8,40(sp)
ffffffffa08021d8:	03a0f02d 	move	s8,sp
ffffffffa08021dc:	ffc40010 	sd	a0,16(s8)
ffffffffa08021e0:	ffc50018 	sd	a1,24(s8)
ffffffffa08021e4:	dfc20018 	ld	v0,24(s8)
ffffffffa08021e8:	ffc20000 	sd	v0,0(s8)
ffffffffa08021ec:	dfc20010 	ld	v0,16(s8)
ffffffffa08021f0:	dc420000 	ld	v0,0(v0)
ffffffffa08021f4:	1440000d 	bnez	v0,ffffffffa080222c <queue_push+0x5c>
ffffffffa08021f8:	00000000 	nop
ffffffffa08021fc:	dfc20010 	ld	v0,16(s8)
ffffffffa0802200:	dfc30018 	ld	v1,24(s8)
ffffffffa0802204:	fc430000 	sd	v1,0(v0)
ffffffffa0802208:	dfc20010 	ld	v0,16(s8)
ffffffffa080220c:	dfc30018 	ld	v1,24(s8)
ffffffffa0802210:	fc430008 	sd	v1,8(v0)
ffffffffa0802214:	dfc20000 	ld	v0,0(s8)
ffffffffa0802218:	fc400268 	sd	zero,616(v0)
ffffffffa080221c:	dfc20000 	ld	v0,0(s8)
ffffffffa0802220:	fc400260 	sd	zero,608(v0)
ffffffffa0802224:	08200898 	j	ffffffffa0802260 <queue_push+0x90>
ffffffffa0802228:	00000000 	nop
ffffffffa080222c:	dfc20010 	ld	v0,16(s8)
ffffffffa0802230:	dc420008 	ld	v0,8(v0)
ffffffffa0802234:	dfc30018 	ld	v1,24(s8)
ffffffffa0802238:	fc430268 	sd	v1,616(v0)
ffffffffa080223c:	dfc20000 	ld	v0,0(s8)
ffffffffa0802240:	fc400268 	sd	zero,616(v0)
ffffffffa0802244:	dfc20010 	ld	v0,16(s8)
ffffffffa0802248:	dc430008 	ld	v1,8(v0)
ffffffffa080224c:	dfc20000 	ld	v0,0(s8)
ffffffffa0802250:	fc430260 	sd	v1,608(v0)
ffffffffa0802254:	dfc20010 	ld	v0,16(s8)
ffffffffa0802258:	dfc30018 	ld	v1,24(s8)
ffffffffa080225c:	fc430008 	sd	v1,8(v0)
ffffffffa0802260:	03c0e82d 	move	sp,s8
ffffffffa0802264:	dfbe0028 	ld	s8,40(sp)
ffffffffa0802268:	67bd0030 	daddiu	sp,sp,48
ffffffffa080226c:	03e00008 	jr	ra
ffffffffa0802270:	00000000 	nop

ffffffffa0802274 <queue_dequeue>:
ffffffffa0802274:	67bdffd0 	daddiu	sp,sp,-48
ffffffffa0802278:	ffbe0028 	sd	s8,40(sp)
ffffffffa080227c:	03a0f02d 	move	s8,sp
ffffffffa0802280:	ffc40010 	sd	a0,16(s8)
ffffffffa0802284:	dfc20010 	ld	v0,16(s8)
ffffffffa0802288:	dc420000 	ld	v0,0(v0)
ffffffffa080228c:	ffc20000 	sd	v0,0(s8)
ffffffffa0802290:	dfc20000 	ld	v0,0(s8)
ffffffffa0802294:	dc420268 	ld	v0,616(v0)
ffffffffa0802298:	14400007 	bnez	v0,ffffffffa08022b8 <queue_dequeue+0x44>
ffffffffa080229c:	00000000 	nop
ffffffffa08022a0:	dfc20010 	ld	v0,16(s8)
ffffffffa08022a4:	fc400000 	sd	zero,0(v0)
ffffffffa08022a8:	dfc20010 	ld	v0,16(s8)
ffffffffa08022ac:	fc400008 	sd	zero,8(v0)
ffffffffa08022b0:	082008b6 	j	ffffffffa08022d8 <queue_dequeue+0x64>
ffffffffa08022b4:	00000000 	nop
ffffffffa08022b8:	dfc20010 	ld	v0,16(s8)
ffffffffa08022bc:	dc420000 	ld	v0,0(v0)
ffffffffa08022c0:	dc430268 	ld	v1,616(v0)
ffffffffa08022c4:	dfc20010 	ld	v0,16(s8)
ffffffffa08022c8:	fc430000 	sd	v1,0(v0)
ffffffffa08022cc:	dfc20010 	ld	v0,16(s8)
ffffffffa08022d0:	dc420000 	ld	v0,0(v0)
ffffffffa08022d4:	fc400260 	sd	zero,608(v0)
ffffffffa08022d8:	dfc20000 	ld	v0,0(s8)
ffffffffa08022dc:	fc400260 	sd	zero,608(v0)
ffffffffa08022e0:	dfc20000 	ld	v0,0(s8)
ffffffffa08022e4:	fc400268 	sd	zero,616(v0)
ffffffffa08022e8:	dfc20000 	ld	v0,0(s8)
ffffffffa08022ec:	03c0e82d 	move	sp,s8
ffffffffa08022f0:	dfbe0028 	ld	s8,40(sp)
ffffffffa08022f4:	67bd0030 	daddiu	sp,sp,48
ffffffffa08022f8:	03e00008 	jr	ra
ffffffffa08022fc:	00000000 	nop

ffffffffa0802300 <queue_remove>:
ffffffffa0802300:	67bdffd0 	daddiu	sp,sp,-48
ffffffffa0802304:	ffbe0028 	sd	s8,40(sp)
ffffffffa0802308:	03a0f02d 	move	s8,sp
ffffffffa080230c:	ffc40010 	sd	a0,16(s8)
ffffffffa0802310:	ffc50018 	sd	a1,24(s8)
ffffffffa0802314:	dfc20018 	ld	v0,24(s8)
ffffffffa0802318:	ffc20000 	sd	v0,0(s8)
ffffffffa080231c:	dfc20000 	ld	v0,0(s8)
ffffffffa0802320:	dc420268 	ld	v0,616(v0)
ffffffffa0802324:	ffc20008 	sd	v0,8(s8)
ffffffffa0802328:	dfc20010 	ld	v0,16(s8)
ffffffffa080232c:	dc430000 	ld	v1,0(v0)
ffffffffa0802330:	dfc20018 	ld	v0,24(s8)
ffffffffa0802334:	1462000c 	bne	v1,v0,ffffffffa0802368 <queue_remove+0x68>
ffffffffa0802338:	00000000 	nop
ffffffffa080233c:	dfc20010 	ld	v0,16(s8)
ffffffffa0802340:	dc430008 	ld	v1,8(v0)
ffffffffa0802344:	dfc20018 	ld	v0,24(s8)
ffffffffa0802348:	14620007 	bne	v1,v0,ffffffffa0802368 <queue_remove+0x68>
ffffffffa080234c:	00000000 	nop
ffffffffa0802350:	dfc20010 	ld	v0,16(s8)
ffffffffa0802354:	fc400000 	sd	zero,0(v0)
ffffffffa0802358:	dfc20010 	ld	v0,16(s8)
ffffffffa080235c:	fc400008 	sd	zero,8(v0)
ffffffffa0802360:	08200900 	j	ffffffffa0802400 <queue_remove+0x100>
ffffffffa0802364:	00000000 	nop
ffffffffa0802368:	dfc20010 	ld	v0,16(s8)
ffffffffa080236c:	dc430000 	ld	v1,0(v0)
ffffffffa0802370:	dfc20018 	ld	v0,24(s8)
ffffffffa0802374:	1462000a 	bne	v1,v0,ffffffffa08023a0 <queue_remove+0xa0>
ffffffffa0802378:	00000000 	nop
ffffffffa080237c:	dfc20000 	ld	v0,0(s8)
ffffffffa0802380:	dc430268 	ld	v1,616(v0)
ffffffffa0802384:	dfc20010 	ld	v0,16(s8)
ffffffffa0802388:	fc430000 	sd	v1,0(v0)
ffffffffa080238c:	dfc20010 	ld	v0,16(s8)
ffffffffa0802390:	dc420000 	ld	v0,0(v0)
ffffffffa0802394:	fc400260 	sd	zero,608(v0)
ffffffffa0802398:	08200900 	j	ffffffffa0802400 <queue_remove+0x100>
ffffffffa080239c:	00000000 	nop
ffffffffa08023a0:	dfc20010 	ld	v0,16(s8)
ffffffffa08023a4:	dc430008 	ld	v1,8(v0)
ffffffffa08023a8:	dfc20018 	ld	v0,24(s8)
ffffffffa08023ac:	1462000a 	bne	v1,v0,ffffffffa08023d8 <queue_remove+0xd8>
ffffffffa08023b0:	00000000 	nop
ffffffffa08023b4:	dfc20000 	ld	v0,0(s8)
ffffffffa08023b8:	dc430260 	ld	v1,608(v0)
ffffffffa08023bc:	dfc20010 	ld	v0,16(s8)
ffffffffa08023c0:	fc430008 	sd	v1,8(v0)
ffffffffa08023c4:	dfc20010 	ld	v0,16(s8)
ffffffffa08023c8:	dc420008 	ld	v0,8(v0)
ffffffffa08023cc:	fc400268 	sd	zero,616(v0)
ffffffffa08023d0:	08200900 	j	ffffffffa0802400 <queue_remove+0x100>
ffffffffa08023d4:	00000000 	nop
ffffffffa08023d8:	dfc20000 	ld	v0,0(s8)
ffffffffa08023dc:	dc420260 	ld	v0,608(v0)
ffffffffa08023e0:	dfc30000 	ld	v1,0(s8)
ffffffffa08023e4:	dc630268 	ld	v1,616(v1)
ffffffffa08023e8:	fc430268 	sd	v1,616(v0)
ffffffffa08023ec:	dfc20000 	ld	v0,0(s8)
ffffffffa08023f0:	dc420268 	ld	v0,616(v0)
ffffffffa08023f4:	dfc30000 	ld	v1,0(s8)
ffffffffa08023f8:	dc630260 	ld	v1,608(v1)
ffffffffa08023fc:	fc430260 	sd	v1,608(v0)
ffffffffa0802400:	dfc20000 	ld	v0,0(s8)
ffffffffa0802404:	fc400260 	sd	zero,608(v0)
ffffffffa0802408:	dfc20000 	ld	v0,0(s8)
ffffffffa080240c:	fc400268 	sd	zero,616(v0)
ffffffffa0802410:	dfc20008 	ld	v0,8(s8)
ffffffffa0802414:	03c0e82d 	move	sp,s8
ffffffffa0802418:	dfbe0028 	ld	s8,40(sp)
ffffffffa080241c:	67bd0030 	daddiu	sp,sp,48
ffffffffa0802420:	03e00008 	jr	ra
ffffffffa0802424:	00000000 	nop
	...

ffffffffa0802430 <get_ticks>:
ffffffffa0802430:	67bdfff0 	daddiu	sp,sp,-16
ffffffffa0802434:	ffbe0008 	sd	s8,8(sp)
ffffffffa0802438:	03a0f02d 	move	s8,sp
ffffffffa080243c:	3c020000 	lui	v0,0x0
ffffffffa0802440:	64420000 	daddiu	v0,v0,0
ffffffffa0802444:	00021438 	dsll	v0,v0,0x10
ffffffffa0802448:	6442a080 	daddiu	v0,v0,-24448
ffffffffa080244c:	00021438 	dsll	v0,v0,0x10
ffffffffa0802450:	8c425fe0 	lw	v0,24544(v0)
ffffffffa0802454:	03c0e82d 	move	sp,s8
ffffffffa0802458:	dfbe0008 	ld	s8,8(sp)
ffffffffa080245c:	67bd0010 	daddiu	sp,sp,16
ffffffffa0802460:	03e00008 	jr	ra
ffffffffa0802464:	00000000 	nop

ffffffffa0802468 <get_timer>:
ffffffffa0802468:	67bdfff0 	daddiu	sp,sp,-16
ffffffffa080246c:	ffbe0008 	sd	s8,8(sp)
ffffffffa0802470:	03a0f02d 	move	s8,sp
ffffffffa0802474:	3c020000 	lui	v0,0x0
ffffffffa0802478:	64420000 	daddiu	v0,v0,0
ffffffffa080247c:	00021438 	dsll	v0,v0,0x10
ffffffffa0802480:	6442a080 	daddiu	v0,v0,-24448
ffffffffa0802484:	00021438 	dsll	v0,v0,0x10
ffffffffa0802488:	8c425fe0 	lw	v0,24544(v0)
ffffffffa080248c:	0040182d 	move	v1,v0
ffffffffa0802490:	3c026b5f 	lui	v0,0x6b5f
ffffffffa0802494:	3442ca6b 	ori	v0,v0,0xca6b
ffffffffa0802498:	00620019 	multu	v1,v0
ffffffffa080249c:	00001010 	mfhi	v0
ffffffffa08024a0:	00021582 	srl	v0,v0,0x16
ffffffffa08024a4:	03c0e82d 	move	sp,s8
ffffffffa08024a8:	dfbe0008 	ld	s8,8(sp)
ffffffffa08024ac:	67bd0010 	daddiu	sp,sp,16
ffffffffa08024b0:	03e00008 	jr	ra
ffffffffa08024b4:	00000000 	nop

ffffffffa08024b8 <latency>:
ffffffffa08024b8:	67bdffd0 	daddiu	sp,sp,-48
ffffffffa08024bc:	ffbf0028 	sd	ra,40(sp)
ffffffffa08024c0:	ffbe0020 	sd	s8,32(sp)
ffffffffa08024c4:	03a0f02d 	move	s8,sp
ffffffffa08024c8:	0080102d 	move	v0,a0
ffffffffa08024cc:	00021000 	sll	v0,v0,0x0
ffffffffa08024d0:	afc20010 	sw	v0,16(s8)
ffffffffa08024d4:	0c20091a 	jal	ffffffffa0802468 <get_timer>
ffffffffa08024d8:	00000000 	nop
ffffffffa08024dc:	afc20000 	sw	v0,0(s8)
ffffffffa08024e0:	00000000 	nop
ffffffffa08024e4:	0c20091a 	jal	ffffffffa0802468 <get_timer>
ffffffffa08024e8:	00000000 	nop
ffffffffa08024ec:	0040182d 	move	v1,v0
ffffffffa08024f0:	8fc20000 	lw	v0,0(s8)
ffffffffa08024f4:	00621023 	subu	v0,v1,v0
ffffffffa08024f8:	8fc30010 	lw	v1,16(s8)
ffffffffa08024fc:	0043102b 	sltu	v0,v0,v1
ffffffffa0802500:	1440fff8 	bnez	v0,ffffffffa08024e4 <latency+0x2c>
ffffffffa0802504:	00000000 	nop
ffffffffa0802508:	00000000 	nop
ffffffffa080250c:	03c0e82d 	move	sp,s8
ffffffffa0802510:	dfbf0028 	ld	ra,40(sp)
ffffffffa0802514:	dfbe0020 	ld	s8,32(sp)
ffffffffa0802518:	67bd0030 	daddiu	sp,sp,48
ffffffffa080251c:	03e00008 	jr	ra
ffffffffa0802520:	00000000 	nop
	...

ffffffffa0802530 <vt100_move_cursor>:
ffffffffa0802530:	67bdffe0 	daddiu	sp,sp,-32
ffffffffa0802534:	ffbf0018 	sd	ra,24(sp)
ffffffffa0802538:	ffbe0010 	sd	s8,16(sp)
ffffffffa080253c:	03a0f02d 	move	s8,sp
ffffffffa0802540:	0080182d 	move	v1,a0
ffffffffa0802544:	00a0102d 	move	v0,a1
ffffffffa0802548:	00031800 	sll	v1,v1,0x0
ffffffffa080254c:	afc30000 	sw	v1,0(s8)
ffffffffa0802550:	00021000 	sll	v0,v0,0x0
ffffffffa0802554:	afc20004 	sw	v0,4(s8)
ffffffffa0802558:	8fc60004 	lw	a2,4(s8)
ffffffffa080255c:	8fc30000 	lw	v1,0(s8)
ffffffffa0802560:	3c020000 	lui	v0,0x0
ffffffffa0802564:	64420000 	daddiu	v0,v0,0
ffffffffa0802568:	00021438 	dsll	v0,v0,0x10
ffffffffa080256c:	6442a080 	daddiu	v0,v0,-24448
ffffffffa0802570:	00021438 	dsll	v0,v0,0x10
ffffffffa0802574:	644453d0 	daddiu	a0,v0,21456
ffffffffa0802578:	2405001b 	li	a1,27
ffffffffa080257c:	0060382d 	move	a3,v1
ffffffffa0802580:	0c2010c7 	jal	ffffffffa080431c <printk>
ffffffffa0802584:	00000000 	nop
ffffffffa0802588:	03c0e82d 	move	sp,s8
ffffffffa080258c:	dfbf0018 	ld	ra,24(sp)
ffffffffa0802590:	dfbe0010 	ld	s8,16(sp)
ffffffffa0802594:	67bd0020 	daddiu	sp,sp,32
ffffffffa0802598:	03e00008 	jr	ra
ffffffffa080259c:	00000000 	nop

ffffffffa08025a0 <vt100_clear>:
ffffffffa08025a0:	67bdfff0 	daddiu	sp,sp,-16
ffffffffa08025a4:	ffbf0008 	sd	ra,8(sp)
ffffffffa08025a8:	ffbe0000 	sd	s8,0(sp)
ffffffffa08025ac:	03a0f02d 	move	s8,sp
ffffffffa08025b0:	3c020000 	lui	v0,0x0
ffffffffa08025b4:	64420000 	daddiu	v0,v0,0
ffffffffa08025b8:	00021438 	dsll	v0,v0,0x10
ffffffffa08025bc:	6442a080 	daddiu	v0,v0,-24448
ffffffffa08025c0:	00021438 	dsll	v0,v0,0x10
ffffffffa08025c4:	644453e0 	daddiu	a0,v0,21472
ffffffffa08025c8:	2405001b 	li	a1,27
ffffffffa08025cc:	0c2010c7 	jal	ffffffffa080431c <printk>
ffffffffa08025d0:	00000000 	nop
ffffffffa08025d4:	03c0e82d 	move	sp,s8
ffffffffa08025d8:	dfbf0008 	ld	ra,8(sp)
ffffffffa08025dc:	dfbe0000 	ld	s8,0(sp)
ffffffffa08025e0:	67bd0010 	daddiu	sp,sp,16
ffffffffa08025e4:	03e00008 	jr	ra
ffffffffa08025e8:	00000000 	nop

ffffffffa08025ec <vt100_hidden_cursor>:
ffffffffa08025ec:	67bdfff0 	daddiu	sp,sp,-16
ffffffffa08025f0:	ffbf0008 	sd	ra,8(sp)
ffffffffa08025f4:	ffbe0000 	sd	s8,0(sp)
ffffffffa08025f8:	03a0f02d 	move	s8,sp
ffffffffa08025fc:	3c020000 	lui	v0,0x0
ffffffffa0802600:	64420000 	daddiu	v0,v0,0
ffffffffa0802604:	00021438 	dsll	v0,v0,0x10
ffffffffa0802608:	6442a080 	daddiu	v0,v0,-24448
ffffffffa080260c:	00021438 	dsll	v0,v0,0x10
ffffffffa0802610:	644453e8 	daddiu	a0,v0,21480
ffffffffa0802614:	2405001b 	li	a1,27
ffffffffa0802618:	0c2010c7 	jal	ffffffffa080431c <printk>
ffffffffa080261c:	00000000 	nop
ffffffffa0802620:	03c0e82d 	move	sp,s8
ffffffffa0802624:	dfbf0008 	ld	ra,8(sp)
ffffffffa0802628:	dfbe0000 	ld	s8,0(sp)
ffffffffa080262c:	67bd0010 	daddiu	sp,sp,16
ffffffffa0802630:	03e00008 	jr	ra
ffffffffa0802634:	00000000 	nop

ffffffffa0802638 <screen_scroll>:
ffffffffa0802638:	67bdffd0 	daddiu	sp,sp,-48
ffffffffa080263c:	ffbe0028 	sd	s8,40(sp)
ffffffffa0802640:	03a0f02d 	move	s8,sp
ffffffffa0802644:	0080182d 	move	v1,a0
ffffffffa0802648:	00a0102d 	move	v0,a1
ffffffffa080264c:	00031800 	sll	v1,v1,0x0
ffffffffa0802650:	afc30010 	sw	v1,16(s8)
ffffffffa0802654:	00021000 	sll	v0,v0,0x0
ffffffffa0802658:	afc20014 	sw	v0,20(s8)
ffffffffa080265c:	8fc20010 	lw	v0,16(s8)
ffffffffa0802660:	afc20000 	sw	v0,0(s8)
ffffffffa0802664:	082009b7 	j	ffffffffa08026dc <screen_scroll+0xa4>
ffffffffa0802668:	00000000 	nop
ffffffffa080266c:	afc00004 	sw	zero,4(s8)
ffffffffa0802670:	082009b0 	j	ffffffffa08026c0 <screen_scroll+0x88>
ffffffffa0802674:	00000000 	nop
ffffffffa0802678:	8fc20000 	lw	v0,0(s8)
ffffffffa080267c:	00021100 	sll	v0,v0,0x4
ffffffffa0802680:	00021880 	sll	v1,v0,0x2
ffffffffa0802684:	00431021 	addu	v0,v0,v1
ffffffffa0802688:	8fc30004 	lw	v1,4(s8)
ffffffffa080268c:	00621021 	addu	v0,v1,v0
ffffffffa0802690:	0040182d 	move	v1,v0
ffffffffa0802694:	3c020000 	lui	v0,0x0
ffffffffa0802698:	64420000 	daddiu	v0,v0,0
ffffffffa080269c:	00021438 	dsll	v0,v0,0x10
ffffffffa08026a0:	6442a080 	daddiu	v0,v0,-24448
ffffffffa08026a4:	00021438 	dsll	v0,v0,0x10
ffffffffa08026a8:	64426950 	daddiu	v0,v0,26960
ffffffffa08026ac:	0062102d 	daddu	v0,v1,v0
ffffffffa08026b0:	a0400000 	sb	zero,0(v0)
ffffffffa08026b4:	8fc20004 	lw	v0,4(s8)
ffffffffa08026b8:	24420001 	addiu	v0,v0,1
ffffffffa08026bc:	afc20004 	sw	v0,4(s8)
ffffffffa08026c0:	8fc20004 	lw	v0,4(s8)
ffffffffa08026c4:	28420050 	slti	v0,v0,80
ffffffffa08026c8:	1440ffeb 	bnez	v0,ffffffffa0802678 <screen_scroll+0x40>
ffffffffa08026cc:	00000000 	nop
ffffffffa08026d0:	8fc20000 	lw	v0,0(s8)
ffffffffa08026d4:	24420001 	addiu	v0,v0,1
ffffffffa08026d8:	afc20000 	sw	v0,0(s8)
ffffffffa08026dc:	8fc30000 	lw	v1,0(s8)
ffffffffa08026e0:	8fc20014 	lw	v0,20(s8)
ffffffffa08026e4:	0043102a 	slt	v0,v0,v1
ffffffffa08026e8:	1040ffe0 	beqz	v0,ffffffffa080266c <screen_scroll+0x34>
ffffffffa08026ec:	00000000 	nop
ffffffffa08026f0:	8fc20010 	lw	v0,16(s8)
ffffffffa08026f4:	afc20000 	sw	v0,0(s8)
ffffffffa08026f8:	08200a02 	j	ffffffffa0802808 <screen_scroll+0x1d0>
ffffffffa08026fc:	00000000 	nop
ffffffffa0802700:	afc00004 	sw	zero,4(s8)
ffffffffa0802704:	082009fb 	j	ffffffffa08027ec <screen_scroll+0x1b4>
ffffffffa0802708:	00000000 	nop
ffffffffa080270c:	8fc30000 	lw	v1,0(s8)
ffffffffa0802710:	8fc20014 	lw	v0,20(s8)
ffffffffa0802714:	14620013 	bne	v1,v0,ffffffffa0802764 <screen_scroll+0x12c>
ffffffffa0802718:	00000000 	nop
ffffffffa080271c:	8fc20000 	lw	v0,0(s8)
ffffffffa0802720:	00021100 	sll	v0,v0,0x4
ffffffffa0802724:	00021880 	sll	v1,v0,0x2
ffffffffa0802728:	00431021 	addu	v0,v0,v1
ffffffffa080272c:	8fc30004 	lw	v1,4(s8)
ffffffffa0802730:	00621021 	addu	v0,v1,v0
ffffffffa0802734:	0040182d 	move	v1,v0
ffffffffa0802738:	3c020000 	lui	v0,0x0
ffffffffa080273c:	64420000 	daddiu	v0,v0,0
ffffffffa0802740:	00021438 	dsll	v0,v0,0x10
ffffffffa0802744:	6442a080 	daddiu	v0,v0,-24448
ffffffffa0802748:	00021438 	dsll	v0,v0,0x10
ffffffffa080274c:	64425ff0 	daddiu	v0,v0,24560
ffffffffa0802750:	0062102d 	daddu	v0,v1,v0
ffffffffa0802754:	24030020 	li	v1,32
ffffffffa0802758:	a0430000 	sb	v1,0(v0)
ffffffffa080275c:	082009f8 	j	ffffffffa08027e0 <screen_scroll+0x1a8>
ffffffffa0802760:	00000000 	nop
ffffffffa0802764:	8fc20000 	lw	v0,0(s8)
ffffffffa0802768:	00021100 	sll	v0,v0,0x4
ffffffffa080276c:	00021880 	sll	v1,v0,0x2
ffffffffa0802770:	00431021 	addu	v0,v0,v1
ffffffffa0802774:	8fc30004 	lw	v1,4(s8)
ffffffffa0802778:	00621021 	addu	v0,v1,v0
ffffffffa080277c:	0040202d 	move	a0,v0
ffffffffa0802780:	8fc20000 	lw	v0,0(s8)
ffffffffa0802784:	24420001 	addiu	v0,v0,1
ffffffffa0802788:	00021100 	sll	v0,v0,0x4
ffffffffa080278c:	00021880 	sll	v1,v0,0x2
ffffffffa0802790:	00431021 	addu	v0,v0,v1
ffffffffa0802794:	8fc30004 	lw	v1,4(s8)
ffffffffa0802798:	00621021 	addu	v0,v1,v0
ffffffffa080279c:	0040182d 	move	v1,v0
ffffffffa08027a0:	3c020000 	lui	v0,0x0
ffffffffa08027a4:	64420000 	daddiu	v0,v0,0
ffffffffa08027a8:	00021438 	dsll	v0,v0,0x10
ffffffffa08027ac:	6442a080 	daddiu	v0,v0,-24448
ffffffffa08027b0:	00021438 	dsll	v0,v0,0x10
ffffffffa08027b4:	64425ff0 	daddiu	v0,v0,24560
ffffffffa08027b8:	0062102d 	daddu	v0,v1,v0
ffffffffa08027bc:	80430000 	lb	v1,0(v0)
ffffffffa08027c0:	3c020000 	lui	v0,0x0
ffffffffa08027c4:	64420000 	daddiu	v0,v0,0
ffffffffa08027c8:	00021438 	dsll	v0,v0,0x10
ffffffffa08027cc:	6442a080 	daddiu	v0,v0,-24448
ffffffffa08027d0:	00021438 	dsll	v0,v0,0x10
ffffffffa08027d4:	64425ff0 	daddiu	v0,v0,24560
ffffffffa08027d8:	0082102d 	daddu	v0,a0,v0
ffffffffa08027dc:	a0430000 	sb	v1,0(v0)
ffffffffa08027e0:	8fc20004 	lw	v0,4(s8)
ffffffffa08027e4:	24420001 	addiu	v0,v0,1
ffffffffa08027e8:	afc20004 	sw	v0,4(s8)
ffffffffa08027ec:	8fc20004 	lw	v0,4(s8)
ffffffffa08027f0:	28420050 	slti	v0,v0,80
ffffffffa08027f4:	1440ffc5 	bnez	v0,ffffffffa080270c <screen_scroll+0xd4>
ffffffffa08027f8:	00000000 	nop
ffffffffa08027fc:	8fc20000 	lw	v0,0(s8)
ffffffffa0802800:	24420001 	addiu	v0,v0,1
ffffffffa0802804:	afc20000 	sw	v0,0(s8)
ffffffffa0802808:	8fc30000 	lw	v1,0(s8)
ffffffffa080280c:	8fc20014 	lw	v0,20(s8)
ffffffffa0802810:	0043102a 	slt	v0,v0,v1
ffffffffa0802814:	1040ffba 	beqz	v0,ffffffffa0802700 <screen_scroll+0xc8>
ffffffffa0802818:	00000000 	nop
ffffffffa080281c:	03c0e82d 	move	sp,s8
ffffffffa0802820:	dfbe0028 	ld	s8,40(sp)
ffffffffa0802824:	67bd0030 	daddiu	sp,sp,48
ffffffffa0802828:	03e00008 	jr	ra
ffffffffa080282c:	00000000 	nop

ffffffffa0802830 <screen_write_ch>:
ffffffffa0802830:	67bdffe0 	daddiu	sp,sp,-32
ffffffffa0802834:	ffbf0018 	sd	ra,24(sp)
ffffffffa0802838:	ffbe0010 	sd	s8,16(sp)
ffffffffa080283c:	03a0f02d 	move	s8,sp
ffffffffa0802840:	0080102d 	move	v0,a0
ffffffffa0802844:	00021000 	sll	v0,v0,0x0
ffffffffa0802848:	a3c20000 	sb	v0,0(s8)
ffffffffa080284c:	83c30000 	lb	v1,0(s8)
ffffffffa0802850:	2402000a 	li	v0,10
ffffffffa0802854:	14620017 	bne	v1,v0,ffffffffa08028b4 <screen_write_ch+0x84>
ffffffffa0802858:	00000000 	nop
ffffffffa080285c:	3c020000 	lui	v0,0x0
ffffffffa0802860:	64420000 	daddiu	v0,v0,0
ffffffffa0802864:	00021438 	dsll	v0,v0,0x10
ffffffffa0802868:	6442a081 	daddiu	v0,v0,-24447
ffffffffa080286c:	00021438 	dsll	v0,v0,0x10
ffffffffa0802870:	ac40cbf0 	sw	zero,-13328(v0)
ffffffffa0802874:	3c020000 	lui	v0,0x0
ffffffffa0802878:	64420000 	daddiu	v0,v0,0
ffffffffa080287c:	00021438 	dsll	v0,v0,0x10
ffffffffa0802880:	6442a081 	daddiu	v0,v0,-24447
ffffffffa0802884:	00021438 	dsll	v0,v0,0x10
ffffffffa0802888:	8c42cbf4 	lw	v0,-13324(v0)
ffffffffa080288c:	24420001 	addiu	v0,v0,1
ffffffffa0802890:	0040182d 	move	v1,v0
ffffffffa0802894:	3c020000 	lui	v0,0x0
ffffffffa0802898:	64420000 	daddiu	v0,v0,0
ffffffffa080289c:	00021438 	dsll	v0,v0,0x10
ffffffffa08028a0:	6442a081 	daddiu	v0,v0,-24447
ffffffffa08028a4:	00021438 	dsll	v0,v0,0x10
ffffffffa08028a8:	ac43cbf4 	sw	v1,-13324(v0)
ffffffffa08028ac:	08200aa7 	j	ffffffffa0802a9c <screen_write_ch+0x26c>
ffffffffa08028b0:	00000000 	nop
ffffffffa08028b4:	83c30000 	lb	v1,0(s8)
ffffffffa08028b8:	24020008 	li	v0,8
ffffffffa08028bc:	14620034 	bne	v1,v0,ffffffffa0802990 <screen_write_ch+0x160>
ffffffffa08028c0:	00000000 	nop
ffffffffa08028c4:	3c020000 	lui	v0,0x0
ffffffffa08028c8:	64420000 	daddiu	v0,v0,0
ffffffffa08028cc:	00021438 	dsll	v0,v0,0x10
ffffffffa08028d0:	6442a081 	daddiu	v0,v0,-24447
ffffffffa08028d4:	00021438 	dsll	v0,v0,0x10
ffffffffa08028d8:	8c42cbf0 	lw	v0,-13328(v0)
ffffffffa08028dc:	1840006f 	blez	v0,ffffffffa0802a9c <screen_write_ch+0x26c>
ffffffffa08028e0:	00000000 	nop
ffffffffa08028e4:	3c020000 	lui	v0,0x0
ffffffffa08028e8:	64420000 	daddiu	v0,v0,0
ffffffffa08028ec:	00021438 	dsll	v0,v0,0x10
ffffffffa08028f0:	6442a081 	daddiu	v0,v0,-24447
ffffffffa08028f4:	00021438 	dsll	v0,v0,0x10
ffffffffa08028f8:	8c42cbf0 	lw	v0,-13328(v0)
ffffffffa08028fc:	2442ffff 	addiu	v0,v0,-1
ffffffffa0802900:	0040182d 	move	v1,v0
ffffffffa0802904:	3c020000 	lui	v0,0x0
ffffffffa0802908:	64420000 	daddiu	v0,v0,0
ffffffffa080290c:	00021438 	dsll	v0,v0,0x10
ffffffffa0802910:	6442a081 	daddiu	v0,v0,-24447
ffffffffa0802914:	00021438 	dsll	v0,v0,0x10
ffffffffa0802918:	ac43cbf0 	sw	v1,-13328(v0)
ffffffffa080291c:	3c020000 	lui	v0,0x0
ffffffffa0802920:	64420000 	daddiu	v0,v0,0
ffffffffa0802924:	00021438 	dsll	v0,v0,0x10
ffffffffa0802928:	6442a081 	daddiu	v0,v0,-24447
ffffffffa080292c:	00021438 	dsll	v0,v0,0x10
ffffffffa0802930:	8c42cbf4 	lw	v0,-13324(v0)
ffffffffa0802934:	00021100 	sll	v0,v0,0x4
ffffffffa0802938:	00021880 	sll	v1,v0,0x2
ffffffffa080293c:	00431021 	addu	v0,v0,v1
ffffffffa0802940:	0040182d 	move	v1,v0
ffffffffa0802944:	3c020000 	lui	v0,0x0
ffffffffa0802948:	64420000 	daddiu	v0,v0,0
ffffffffa080294c:	00021438 	dsll	v0,v0,0x10
ffffffffa0802950:	6442a081 	daddiu	v0,v0,-24447
ffffffffa0802954:	00021438 	dsll	v0,v0,0x10
ffffffffa0802958:	8c42cbf0 	lw	v0,-13328(v0)
ffffffffa080295c:	00621021 	addu	v0,v1,v0
ffffffffa0802960:	0040182d 	move	v1,v0
ffffffffa0802964:	3c020000 	lui	v0,0x0
ffffffffa0802968:	64420000 	daddiu	v0,v0,0
ffffffffa080296c:	00021438 	dsll	v0,v0,0x10
ffffffffa0802970:	6442a080 	daddiu	v0,v0,-24448
ffffffffa0802974:	00021438 	dsll	v0,v0,0x10
ffffffffa0802978:	64425ff0 	daddiu	v0,v0,24560
ffffffffa080297c:	0062102d 	daddu	v0,v1,v0
ffffffffa0802980:	24030020 	li	v1,32
ffffffffa0802984:	a0430000 	sb	v1,0(v0)
ffffffffa0802988:	08200aa7 	j	ffffffffa0802a9c <screen_write_ch+0x26c>
ffffffffa080298c:	00000000 	nop
ffffffffa0802990:	83c30000 	lb	v1,0(s8)
ffffffffa0802994:	2402000d 	li	v0,13
ffffffffa0802998:	14620017 	bne	v1,v0,ffffffffa08029f8 <screen_write_ch+0x1c8>
ffffffffa080299c:	00000000 	nop
ffffffffa08029a0:	3c020000 	lui	v0,0x0
ffffffffa08029a4:	64420000 	daddiu	v0,v0,0
ffffffffa08029a8:	00021438 	dsll	v0,v0,0x10
ffffffffa08029ac:	6442a081 	daddiu	v0,v0,-24447
ffffffffa08029b0:	00021438 	dsll	v0,v0,0x10
ffffffffa08029b4:	ac40cbf0 	sw	zero,-13328(v0)
ffffffffa08029b8:	3c020000 	lui	v0,0x0
ffffffffa08029bc:	64420000 	daddiu	v0,v0,0
ffffffffa08029c0:	00021438 	dsll	v0,v0,0x10
ffffffffa08029c4:	6442a081 	daddiu	v0,v0,-24447
ffffffffa08029c8:	00021438 	dsll	v0,v0,0x10
ffffffffa08029cc:	8c42cbf4 	lw	v0,-13324(v0)
ffffffffa08029d0:	24420001 	addiu	v0,v0,1
ffffffffa08029d4:	0040182d 	move	v1,v0
ffffffffa08029d8:	3c020000 	lui	v0,0x0
ffffffffa08029dc:	64420000 	daddiu	v0,v0,0
ffffffffa08029e0:	00021438 	dsll	v0,v0,0x10
ffffffffa08029e4:	6442a081 	daddiu	v0,v0,-24447
ffffffffa08029e8:	00021438 	dsll	v0,v0,0x10
ffffffffa08029ec:	ac43cbf4 	sw	v1,-13324(v0)
ffffffffa08029f0:	08200aa7 	j	ffffffffa0802a9c <screen_write_ch+0x26c>
ffffffffa08029f4:	00000000 	nop
ffffffffa08029f8:	3c020000 	lui	v0,0x0
ffffffffa08029fc:	64420000 	daddiu	v0,v0,0
ffffffffa0802a00:	00021438 	dsll	v0,v0,0x10
ffffffffa0802a04:	6442a081 	daddiu	v0,v0,-24447
ffffffffa0802a08:	00021438 	dsll	v0,v0,0x10
ffffffffa0802a0c:	8c42cbf4 	lw	v0,-13324(v0)
ffffffffa0802a10:	00021100 	sll	v0,v0,0x4
ffffffffa0802a14:	00021880 	sll	v1,v0,0x2
ffffffffa0802a18:	00431021 	addu	v0,v0,v1
ffffffffa0802a1c:	0040182d 	move	v1,v0
ffffffffa0802a20:	3c020000 	lui	v0,0x0
ffffffffa0802a24:	64420000 	daddiu	v0,v0,0
ffffffffa0802a28:	00021438 	dsll	v0,v0,0x10
ffffffffa0802a2c:	6442a081 	daddiu	v0,v0,-24447
ffffffffa0802a30:	00021438 	dsll	v0,v0,0x10
ffffffffa0802a34:	8c42cbf0 	lw	v0,-13328(v0)
ffffffffa0802a38:	00621021 	addu	v0,v1,v0
ffffffffa0802a3c:	0040182d 	move	v1,v0
ffffffffa0802a40:	3c020000 	lui	v0,0x0
ffffffffa0802a44:	64420000 	daddiu	v0,v0,0
ffffffffa0802a48:	00021438 	dsll	v0,v0,0x10
ffffffffa0802a4c:	6442a080 	daddiu	v0,v0,-24448
ffffffffa0802a50:	00021438 	dsll	v0,v0,0x10
ffffffffa0802a54:	64425ff0 	daddiu	v0,v0,24560
ffffffffa0802a58:	0062102d 	daddu	v0,v1,v0
ffffffffa0802a5c:	93c30000 	lbu	v1,0(s8)
ffffffffa0802a60:	a0430000 	sb	v1,0(v0)
ffffffffa0802a64:	3c020000 	lui	v0,0x0
ffffffffa0802a68:	64420000 	daddiu	v0,v0,0
ffffffffa0802a6c:	00021438 	dsll	v0,v0,0x10
ffffffffa0802a70:	6442a081 	daddiu	v0,v0,-24447
ffffffffa0802a74:	00021438 	dsll	v0,v0,0x10
ffffffffa0802a78:	8c42cbf0 	lw	v0,-13328(v0)
ffffffffa0802a7c:	24420001 	addiu	v0,v0,1
ffffffffa0802a80:	0040182d 	move	v1,v0
ffffffffa0802a84:	3c020000 	lui	v0,0x0
ffffffffa0802a88:	64420000 	daddiu	v0,v0,0
ffffffffa0802a8c:	00021438 	dsll	v0,v0,0x10
ffffffffa0802a90:	6442a081 	daddiu	v0,v0,-24447
ffffffffa0802a94:	00021438 	dsll	v0,v0,0x10
ffffffffa0802a98:	ac43cbf0 	sw	v1,-13328(v0)
ffffffffa0802a9c:	3c020000 	lui	v0,0x0
ffffffffa0802aa0:	64420000 	daddiu	v0,v0,0
ffffffffa0802aa4:	00021438 	dsll	v0,v0,0x10
ffffffffa0802aa8:	6442a081 	daddiu	v0,v0,-24447
ffffffffa0802aac:	00021438 	dsll	v0,v0,0x10
ffffffffa0802ab0:	8c42cbf0 	lw	v0,-13328(v0)
ffffffffa0802ab4:	04410007 	bgez	v0,ffffffffa0802ad4 <screen_write_ch+0x2a4>
ffffffffa0802ab8:	00000000 	nop
ffffffffa0802abc:	3c020000 	lui	v0,0x0
ffffffffa0802ac0:	64420000 	daddiu	v0,v0,0
ffffffffa0802ac4:	00021438 	dsll	v0,v0,0x10
ffffffffa0802ac8:	6442a081 	daddiu	v0,v0,-24447
ffffffffa0802acc:	00021438 	dsll	v0,v0,0x10
ffffffffa0802ad0:	ac40cbf0 	sw	zero,-13328(v0)
ffffffffa0802ad4:	3c020000 	lui	v0,0x0
ffffffffa0802ad8:	64420000 	daddiu	v0,v0,0
ffffffffa0802adc:	00021438 	dsll	v0,v0,0x10
ffffffffa0802ae0:	6442a081 	daddiu	v0,v0,-24447
ffffffffa0802ae4:	00021438 	dsll	v0,v0,0x10
ffffffffa0802ae8:	8c42cbf0 	lw	v0,-13328(v0)
ffffffffa0802aec:	28420050 	slti	v0,v0,80
ffffffffa0802af0:	14400015 	bnez	v0,ffffffffa0802b48 <screen_write_ch+0x318>
ffffffffa0802af4:	00000000 	nop
ffffffffa0802af8:	3c020000 	lui	v0,0x0
ffffffffa0802afc:	64420000 	daddiu	v0,v0,0
ffffffffa0802b00:	00021438 	dsll	v0,v0,0x10
ffffffffa0802b04:	6442a081 	daddiu	v0,v0,-24447
ffffffffa0802b08:	00021438 	dsll	v0,v0,0x10
ffffffffa0802b0c:	8c42cbf4 	lw	v0,-13324(v0)
ffffffffa0802b10:	24420001 	addiu	v0,v0,1
ffffffffa0802b14:	0040182d 	move	v1,v0
ffffffffa0802b18:	3c020000 	lui	v0,0x0
ffffffffa0802b1c:	64420000 	daddiu	v0,v0,0
ffffffffa0802b20:	00021438 	dsll	v0,v0,0x10
ffffffffa0802b24:	6442a081 	daddiu	v0,v0,-24447
ffffffffa0802b28:	00021438 	dsll	v0,v0,0x10
ffffffffa0802b2c:	ac43cbf4 	sw	v1,-13324(v0)
ffffffffa0802b30:	3c020000 	lui	v0,0x0
ffffffffa0802b34:	64420000 	daddiu	v0,v0,0
ffffffffa0802b38:	00021438 	dsll	v0,v0,0x10
ffffffffa0802b3c:	6442a081 	daddiu	v0,v0,-24447
ffffffffa0802b40:	00021438 	dsll	v0,v0,0x10
ffffffffa0802b44:	ac40cbf0 	sw	zero,-13328(v0)
ffffffffa0802b48:	3c020000 	lui	v0,0x0
ffffffffa0802b4c:	64420000 	daddiu	v0,v0,0
ffffffffa0802b50:	00021438 	dsll	v0,v0,0x10
ffffffffa0802b54:	6442a081 	daddiu	v0,v0,-24447
ffffffffa0802b58:	00021438 	dsll	v0,v0,0x10
ffffffffa0802b5c:	8c42cbf4 	lw	v0,-13324(v0)
ffffffffa0802b60:	04410007 	bgez	v0,ffffffffa0802b80 <screen_write_ch+0x350>
ffffffffa0802b64:	00000000 	nop
ffffffffa0802b68:	3c020000 	lui	v0,0x0
ffffffffa0802b6c:	64420000 	daddiu	v0,v0,0
ffffffffa0802b70:	00021438 	dsll	v0,v0,0x10
ffffffffa0802b74:	6442a081 	daddiu	v0,v0,-24447
ffffffffa0802b78:	00021438 	dsll	v0,v0,0x10
ffffffffa0802b7c:	ac40cbf4 	sw	zero,-13324(v0)
ffffffffa0802b80:	3c020000 	lui	v0,0x0
ffffffffa0802b84:	64420000 	daddiu	v0,v0,0
ffffffffa0802b88:	00021438 	dsll	v0,v0,0x10
ffffffffa0802b8c:	6442a081 	daddiu	v0,v0,-24447
ffffffffa0802b90:	00021438 	dsll	v0,v0,0x10
ffffffffa0802b94:	8c42cbf4 	lw	v0,-13324(v0)
ffffffffa0802b98:	2842001e 	slti	v0,v0,30
ffffffffa0802b9c:	14400012 	bnez	v0,ffffffffa0802be8 <screen_write_ch+0x3b8>
ffffffffa0802ba0:	00000000 	nop
ffffffffa0802ba4:	24040010 	li	a0,16
ffffffffa0802ba8:	2405001d 	li	a1,29
ffffffffa0802bac:	0c20098e 	jal	ffffffffa0802638 <screen_scroll>
ffffffffa0802bb0:	00000000 	nop
ffffffffa0802bb4:	3c020000 	lui	v0,0x0
ffffffffa0802bb8:	64420000 	daddiu	v0,v0,0
ffffffffa0802bbc:	00021438 	dsll	v0,v0,0x10
ffffffffa0802bc0:	6442a081 	daddiu	v0,v0,-24447
ffffffffa0802bc4:	00021438 	dsll	v0,v0,0x10
ffffffffa0802bc8:	ac40cbf0 	sw	zero,-13328(v0)
ffffffffa0802bcc:	3c020000 	lui	v0,0x0
ffffffffa0802bd0:	64420000 	daddiu	v0,v0,0
ffffffffa0802bd4:	00021438 	dsll	v0,v0,0x10
ffffffffa0802bd8:	6442a081 	daddiu	v0,v0,-24447
ffffffffa0802bdc:	00021438 	dsll	v0,v0,0x10
ffffffffa0802be0:	2403001d 	li	v1,29
ffffffffa0802be4:	ac43cbf4 	sw	v1,-13324(v0)
ffffffffa0802be8:	03c0e82d 	move	sp,s8
ffffffffa0802bec:	dfbf0018 	ld	ra,24(sp)
ffffffffa0802bf0:	dfbe0010 	ld	s8,16(sp)
ffffffffa0802bf4:	67bd0020 	daddiu	sp,sp,32
ffffffffa0802bf8:	03e00008 	jr	ra
ffffffffa0802bfc:	00000000 	nop

ffffffffa0802c00 <init_screen>:
ffffffffa0802c00:	67bdfff0 	daddiu	sp,sp,-16
ffffffffa0802c04:	ffbf0008 	sd	ra,8(sp)
ffffffffa0802c08:	ffbe0000 	sd	s8,0(sp)
ffffffffa0802c0c:	03a0f02d 	move	s8,sp
ffffffffa0802c10:	0c20097b 	jal	ffffffffa08025ec <vt100_hidden_cursor>
ffffffffa0802c14:	00000000 	nop
ffffffffa0802c18:	0c200968 	jal	ffffffffa08025a0 <vt100_clear>
ffffffffa0802c1c:	00000000 	nop
ffffffffa0802c20:	0000202d 	move	a0,zero
ffffffffa0802c24:	2405001d 	li	a1,29
ffffffffa0802c28:	0c200b12 	jal	ffffffffa0802c48 <screen_clear>
ffffffffa0802c2c:	00000000 	nop
ffffffffa0802c30:	03c0e82d 	move	sp,s8
ffffffffa0802c34:	dfbf0008 	ld	ra,8(sp)
ffffffffa0802c38:	dfbe0000 	ld	s8,0(sp)
ffffffffa0802c3c:	67bd0010 	daddiu	sp,sp,16
ffffffffa0802c40:	03e00008 	jr	ra
ffffffffa0802c44:	00000000 	nop

ffffffffa0802c48 <screen_clear>:
ffffffffa0802c48:	67bdffd0 	daddiu	sp,sp,-48
ffffffffa0802c4c:	ffbf0028 	sd	ra,40(sp)
ffffffffa0802c50:	ffbe0020 	sd	s8,32(sp)
ffffffffa0802c54:	03a0f02d 	move	s8,sp
ffffffffa0802c58:	0080182d 	move	v1,a0
ffffffffa0802c5c:	00a0102d 	move	v0,a1
ffffffffa0802c60:	00031800 	sll	v1,v1,0x0
ffffffffa0802c64:	afc30010 	sw	v1,16(s8)
ffffffffa0802c68:	00021000 	sll	v0,v0,0x0
ffffffffa0802c6c:	afc20014 	sw	v0,20(s8)
ffffffffa0802c70:	afc00000 	sw	zero,0(s8)
ffffffffa0802c74:	08200b4b 	j	ffffffffa0802d2c <screen_clear+0xe4>
ffffffffa0802c78:	00000000 	nop
ffffffffa0802c7c:	afc00004 	sw	zero,4(s8)
ffffffffa0802c80:	08200b44 	j	ffffffffa0802d10 <screen_clear+0xc8>
ffffffffa0802c84:	00000000 	nop
ffffffffa0802c88:	8fc20000 	lw	v0,0(s8)
ffffffffa0802c8c:	00021100 	sll	v0,v0,0x4
ffffffffa0802c90:	00021880 	sll	v1,v0,0x2
ffffffffa0802c94:	00431021 	addu	v0,v0,v1
ffffffffa0802c98:	8fc30004 	lw	v1,4(s8)
ffffffffa0802c9c:	00621021 	addu	v0,v1,v0
ffffffffa0802ca0:	0040182d 	move	v1,v0
ffffffffa0802ca4:	3c020000 	lui	v0,0x0
ffffffffa0802ca8:	64420000 	daddiu	v0,v0,0
ffffffffa0802cac:	00021438 	dsll	v0,v0,0x10
ffffffffa0802cb0:	6442a080 	daddiu	v0,v0,-24448
ffffffffa0802cb4:	00021438 	dsll	v0,v0,0x10
ffffffffa0802cb8:	64425ff0 	daddiu	v0,v0,24560
ffffffffa0802cbc:	0062102d 	daddu	v0,v1,v0
ffffffffa0802cc0:	24030020 	li	v1,32
ffffffffa0802cc4:	a0430000 	sb	v1,0(v0)
ffffffffa0802cc8:	8fc20000 	lw	v0,0(s8)
ffffffffa0802ccc:	00021100 	sll	v0,v0,0x4
ffffffffa0802cd0:	00021880 	sll	v1,v0,0x2
ffffffffa0802cd4:	00431021 	addu	v0,v0,v1
ffffffffa0802cd8:	8fc30004 	lw	v1,4(s8)
ffffffffa0802cdc:	00621021 	addu	v0,v1,v0
ffffffffa0802ce0:	0040182d 	move	v1,v0
ffffffffa0802ce4:	3c020000 	lui	v0,0x0
ffffffffa0802ce8:	64420000 	daddiu	v0,v0,0
ffffffffa0802cec:	00021438 	dsll	v0,v0,0x10
ffffffffa0802cf0:	6442a080 	daddiu	v0,v0,-24448
ffffffffa0802cf4:	00021438 	dsll	v0,v0,0x10
ffffffffa0802cf8:	64426950 	daddiu	v0,v0,26960
ffffffffa0802cfc:	0062102d 	daddu	v0,v1,v0
ffffffffa0802d00:	a0400000 	sb	zero,0(v0)
ffffffffa0802d04:	8fc20004 	lw	v0,4(s8)
ffffffffa0802d08:	24420001 	addiu	v0,v0,1
ffffffffa0802d0c:	afc20004 	sw	v0,4(s8)
ffffffffa0802d10:	8fc20004 	lw	v0,4(s8)
ffffffffa0802d14:	28420050 	slti	v0,v0,80
ffffffffa0802d18:	1440ffdb 	bnez	v0,ffffffffa0802c88 <screen_clear+0x40>
ffffffffa0802d1c:	00000000 	nop
ffffffffa0802d20:	8fc20000 	lw	v0,0(s8)
ffffffffa0802d24:	24420001 	addiu	v0,v0,1
ffffffffa0802d28:	afc20000 	sw	v0,0(s8)
ffffffffa0802d2c:	8fc20000 	lw	v0,0(s8)
ffffffffa0802d30:	2842001e 	slti	v0,v0,30
ffffffffa0802d34:	1440ffd1 	bnez	v0,ffffffffa0802c7c <screen_clear+0x34>
ffffffffa0802d38:	00000000 	nop
ffffffffa0802d3c:	3c020000 	lui	v0,0x0
ffffffffa0802d40:	64420000 	daddiu	v0,v0,0
ffffffffa0802d44:	00021438 	dsll	v0,v0,0x10
ffffffffa0802d48:	6442a081 	daddiu	v0,v0,-24447
ffffffffa0802d4c:	00021438 	dsll	v0,v0,0x10
ffffffffa0802d50:	ac40cbf0 	sw	zero,-13328(v0)
ffffffffa0802d54:	3c020000 	lui	v0,0x0
ffffffffa0802d58:	64420000 	daddiu	v0,v0,0
ffffffffa0802d5c:	00021438 	dsll	v0,v0,0x10
ffffffffa0802d60:	6442a081 	daddiu	v0,v0,-24447
ffffffffa0802d64:	00021438 	dsll	v0,v0,0x10
ffffffffa0802d68:	ac40cbf4 	sw	zero,-13324(v0)
ffffffffa0802d6c:	0c200ba1 	jal	ffffffffa0802e84 <screen_reflush>
ffffffffa0802d70:	00000000 	nop
ffffffffa0802d74:	03c0e82d 	move	sp,s8
ffffffffa0802d78:	dfbf0028 	ld	ra,40(sp)
ffffffffa0802d7c:	dfbe0020 	ld	s8,32(sp)
ffffffffa0802d80:	67bd0030 	daddiu	sp,sp,48
ffffffffa0802d84:	03e00008 	jr	ra
ffffffffa0802d88:	00000000 	nop

ffffffffa0802d8c <screen_move_cursor>:
ffffffffa0802d8c:	67bdffe0 	daddiu	sp,sp,-32
ffffffffa0802d90:	ffbe0018 	sd	s8,24(sp)
ffffffffa0802d94:	03a0f02d 	move	s8,sp
ffffffffa0802d98:	0080182d 	move	v1,a0
ffffffffa0802d9c:	00a0102d 	move	v0,a1
ffffffffa0802da0:	00031800 	sll	v1,v1,0x0
ffffffffa0802da4:	afc30000 	sw	v1,0(s8)
ffffffffa0802da8:	00021000 	sll	v0,v0,0x0
ffffffffa0802dac:	afc20004 	sw	v0,4(s8)
ffffffffa0802db0:	3c020000 	lui	v0,0x0
ffffffffa0802db4:	64420000 	daddiu	v0,v0,0
ffffffffa0802db8:	00021438 	dsll	v0,v0,0x10
ffffffffa0802dbc:	6442a081 	daddiu	v0,v0,-24447
ffffffffa0802dc0:	00021438 	dsll	v0,v0,0x10
ffffffffa0802dc4:	8fc30000 	lw	v1,0(s8)
ffffffffa0802dc8:	ac43cbf0 	sw	v1,-13328(v0)
ffffffffa0802dcc:	3c020000 	lui	v0,0x0
ffffffffa0802dd0:	64420000 	daddiu	v0,v0,0
ffffffffa0802dd4:	00021438 	dsll	v0,v0,0x10
ffffffffa0802dd8:	6442a081 	daddiu	v0,v0,-24447
ffffffffa0802ddc:	00021438 	dsll	v0,v0,0x10
ffffffffa0802de0:	8fc30004 	lw	v1,4(s8)
ffffffffa0802de4:	ac43cbf4 	sw	v1,-13324(v0)
ffffffffa0802de8:	03c0e82d 	move	sp,s8
ffffffffa0802dec:	dfbe0018 	ld	s8,24(sp)
ffffffffa0802df0:	67bd0020 	daddiu	sp,sp,32
ffffffffa0802df4:	03e00008 	jr	ra
ffffffffa0802df8:	00000000 	nop

ffffffffa0802dfc <screen_write>:
ffffffffa0802dfc:	67bdffd0 	daddiu	sp,sp,-48
ffffffffa0802e00:	ffbf0028 	sd	ra,40(sp)
ffffffffa0802e04:	ffbe0020 	sd	s8,32(sp)
ffffffffa0802e08:	03a0f02d 	move	s8,sp
ffffffffa0802e0c:	ffc40010 	sd	a0,16(s8)
ffffffffa0802e10:	afc00000 	sw	zero,0(s8)
ffffffffa0802e14:	dfc40010 	ld	a0,16(s8)
ffffffffa0802e18:	0c200db8 	jal	ffffffffa08036e0 <strlen>
ffffffffa0802e1c:	00000000 	nop
ffffffffa0802e20:	afc20004 	sw	v0,4(s8)
ffffffffa0802e24:	afc00000 	sw	zero,0(s8)
ffffffffa0802e28:	08200b96 	j	ffffffffa0802e58 <screen_write+0x5c>
ffffffffa0802e2c:	00000000 	nop
ffffffffa0802e30:	8fc20000 	lw	v0,0(s8)
ffffffffa0802e34:	dfc30010 	ld	v1,16(s8)
ffffffffa0802e38:	0062102d 	daddu	v0,v1,v0
ffffffffa0802e3c:	80420000 	lb	v0,0(v0)
ffffffffa0802e40:	0040202d 	move	a0,v0
ffffffffa0802e44:	0c200a0c 	jal	ffffffffa0802830 <screen_write_ch>
ffffffffa0802e48:	00000000 	nop
ffffffffa0802e4c:	8fc20000 	lw	v0,0(s8)
ffffffffa0802e50:	24420001 	addiu	v0,v0,1
ffffffffa0802e54:	afc20000 	sw	v0,0(s8)
ffffffffa0802e58:	8fc30000 	lw	v1,0(s8)
ffffffffa0802e5c:	8fc20004 	lw	v0,4(s8)
ffffffffa0802e60:	0062102a 	slt	v0,v1,v0
ffffffffa0802e64:	1440fff2 	bnez	v0,ffffffffa0802e30 <screen_write+0x34>
ffffffffa0802e68:	00000000 	nop
ffffffffa0802e6c:	03c0e82d 	move	sp,s8
ffffffffa0802e70:	dfbf0028 	ld	ra,40(sp)
ffffffffa0802e74:	dfbe0020 	ld	s8,32(sp)
ffffffffa0802e78:	67bd0030 	daddiu	sp,sp,48
ffffffffa0802e7c:	03e00008 	jr	ra
ffffffffa0802e80:	00000000 	nop

ffffffffa0802e84 <screen_reflush>:
ffffffffa0802e84:	67bdffe0 	daddiu	sp,sp,-32
ffffffffa0802e88:	ffbf0018 	sd	ra,24(sp)
ffffffffa0802e8c:	ffbe0010 	sd	s8,16(sp)
ffffffffa0802e90:	03a0f02d 	move	s8,sp
ffffffffa0802e94:	afc00000 	sw	zero,0(s8)
ffffffffa0802e98:	08200c0e 	j	ffffffffa0803038 <screen_reflush+0x1b4>
ffffffffa0802e9c:	00000000 	nop
ffffffffa0802ea0:	afc00004 	sw	zero,4(s8)
ffffffffa0802ea4:	08200c07 	j	ffffffffa080301c <screen_reflush+0x198>
ffffffffa0802ea8:	00000000 	nop
ffffffffa0802eac:	8fc20000 	lw	v0,0(s8)
ffffffffa0802eb0:	00021100 	sll	v0,v0,0x4
ffffffffa0802eb4:	00021880 	sll	v1,v0,0x2
ffffffffa0802eb8:	00431021 	addu	v0,v0,v1
ffffffffa0802ebc:	8fc30004 	lw	v1,4(s8)
ffffffffa0802ec0:	00621021 	addu	v0,v1,v0
ffffffffa0802ec4:	0040182d 	move	v1,v0
ffffffffa0802ec8:	3c020000 	lui	v0,0x0
ffffffffa0802ecc:	64420000 	daddiu	v0,v0,0
ffffffffa0802ed0:	00021438 	dsll	v0,v0,0x10
ffffffffa0802ed4:	6442a080 	daddiu	v0,v0,-24448
ffffffffa0802ed8:	00021438 	dsll	v0,v0,0x10
ffffffffa0802edc:	64425ff0 	daddiu	v0,v0,24560
ffffffffa0802ee0:	0062102d 	daddu	v0,v1,v0
ffffffffa0802ee4:	80430000 	lb	v1,0(v0)
ffffffffa0802ee8:	8fc20000 	lw	v0,0(s8)
ffffffffa0802eec:	00021100 	sll	v0,v0,0x4
ffffffffa0802ef0:	00022080 	sll	a0,v0,0x2
ffffffffa0802ef4:	00441021 	addu	v0,v0,a0
ffffffffa0802ef8:	8fc40004 	lw	a0,4(s8)
ffffffffa0802efc:	00821021 	addu	v0,a0,v0
ffffffffa0802f00:	0040202d 	move	a0,v0
ffffffffa0802f04:	3c020000 	lui	v0,0x0
ffffffffa0802f08:	64420000 	daddiu	v0,v0,0
ffffffffa0802f0c:	00021438 	dsll	v0,v0,0x10
ffffffffa0802f10:	6442a080 	daddiu	v0,v0,-24448
ffffffffa0802f14:	00021438 	dsll	v0,v0,0x10
ffffffffa0802f18:	64426950 	daddiu	v0,v0,26960
ffffffffa0802f1c:	0082102d 	daddu	v0,a0,v0
ffffffffa0802f20:	80420000 	lb	v0,0(v0)
ffffffffa0802f24:	1062003a 	beq	v1,v0,ffffffffa0803010 <screen_reflush+0x18c>
ffffffffa0802f28:	00000000 	nop
ffffffffa0802f2c:	8fc20004 	lw	v0,4(s8)
ffffffffa0802f30:	24420001 	addiu	v0,v0,1
ffffffffa0802f34:	0040182d 	move	v1,v0
ffffffffa0802f38:	8fc20000 	lw	v0,0(s8)
ffffffffa0802f3c:	24420001 	addiu	v0,v0,1
ffffffffa0802f40:	0060202d 	move	a0,v1
ffffffffa0802f44:	0040282d 	move	a1,v0
ffffffffa0802f48:	0c20094c 	jal	ffffffffa0802530 <vt100_move_cursor>
ffffffffa0802f4c:	00000000 	nop
ffffffffa0802f50:	8fc20000 	lw	v0,0(s8)
ffffffffa0802f54:	00021100 	sll	v0,v0,0x4
ffffffffa0802f58:	00021880 	sll	v1,v0,0x2
ffffffffa0802f5c:	00431021 	addu	v0,v0,v1
ffffffffa0802f60:	8fc30004 	lw	v1,4(s8)
ffffffffa0802f64:	00621021 	addu	v0,v1,v0
ffffffffa0802f68:	0040182d 	move	v1,v0
ffffffffa0802f6c:	3c020000 	lui	v0,0x0
ffffffffa0802f70:	64420000 	daddiu	v0,v0,0
ffffffffa0802f74:	00021438 	dsll	v0,v0,0x10
ffffffffa0802f78:	6442a080 	daddiu	v0,v0,-24448
ffffffffa0802f7c:	00021438 	dsll	v0,v0,0x10
ffffffffa0802f80:	64425ff0 	daddiu	v0,v0,24560
ffffffffa0802f84:	0062102d 	daddu	v0,v1,v0
ffffffffa0802f88:	80420000 	lb	v0,0(v0)
ffffffffa0802f8c:	0040202d 	move	a0,v0
ffffffffa0802f90:	0c2000c4 	jal	ffffffffa0800310 <invoke_syscall>
ffffffffa0802f94:	00000000 	nop
ffffffffa0802f98:	8fc20000 	lw	v0,0(s8)
ffffffffa0802f9c:	00021100 	sll	v0,v0,0x4
ffffffffa0802fa0:	00021880 	sll	v1,v0,0x2
ffffffffa0802fa4:	00431021 	addu	v0,v0,v1
ffffffffa0802fa8:	8fc30004 	lw	v1,4(s8)
ffffffffa0802fac:	00621021 	addu	v0,v1,v0
ffffffffa0802fb0:	0040202d 	move	a0,v0
ffffffffa0802fb4:	8fc20000 	lw	v0,0(s8)
ffffffffa0802fb8:	00021100 	sll	v0,v0,0x4
ffffffffa0802fbc:	00021880 	sll	v1,v0,0x2
ffffffffa0802fc0:	00431021 	addu	v0,v0,v1
ffffffffa0802fc4:	8fc30004 	lw	v1,4(s8)
ffffffffa0802fc8:	00621021 	addu	v0,v1,v0
ffffffffa0802fcc:	0040182d 	move	v1,v0
ffffffffa0802fd0:	3c020000 	lui	v0,0x0
ffffffffa0802fd4:	64420000 	daddiu	v0,v0,0
ffffffffa0802fd8:	00021438 	dsll	v0,v0,0x10
ffffffffa0802fdc:	6442a080 	daddiu	v0,v0,-24448
ffffffffa0802fe0:	00021438 	dsll	v0,v0,0x10
ffffffffa0802fe4:	64425ff0 	daddiu	v0,v0,24560
ffffffffa0802fe8:	0062102d 	daddu	v0,v1,v0
ffffffffa0802fec:	80430000 	lb	v1,0(v0)
ffffffffa0802ff0:	3c020000 	lui	v0,0x0
ffffffffa0802ff4:	64420000 	daddiu	v0,v0,0
ffffffffa0802ff8:	00021438 	dsll	v0,v0,0x10
ffffffffa0802ffc:	6442a080 	daddiu	v0,v0,-24448
ffffffffa0803000:	00021438 	dsll	v0,v0,0x10
ffffffffa0803004:	64426950 	daddiu	v0,v0,26960
ffffffffa0803008:	0082102d 	daddu	v0,a0,v0
ffffffffa080300c:	a0430000 	sb	v1,0(v0)
ffffffffa0803010:	8fc20004 	lw	v0,4(s8)
ffffffffa0803014:	24420001 	addiu	v0,v0,1
ffffffffa0803018:	afc20004 	sw	v0,4(s8)
ffffffffa080301c:	8fc20004 	lw	v0,4(s8)
ffffffffa0803020:	28420050 	slti	v0,v0,80
ffffffffa0803024:	1440ffa1 	bnez	v0,ffffffffa0802eac <screen_reflush+0x28>
ffffffffa0803028:	00000000 	nop
ffffffffa080302c:	8fc20000 	lw	v0,0(s8)
ffffffffa0803030:	24420001 	addiu	v0,v0,1
ffffffffa0803034:	afc20000 	sw	v0,0(s8)
ffffffffa0803038:	8fc20000 	lw	v0,0(s8)
ffffffffa080303c:	2842001e 	slti	v0,v0,30
ffffffffa0803040:	1440ff97 	bnez	v0,ffffffffa0802ea0 <screen_reflush+0x1c>
ffffffffa0803044:	00000000 	nop
ffffffffa0803048:	3c020000 	lui	v0,0x0
ffffffffa080304c:	64420000 	daddiu	v0,v0,0
ffffffffa0803050:	00021438 	dsll	v0,v0,0x10
ffffffffa0803054:	6442a081 	daddiu	v0,v0,-24447
ffffffffa0803058:	00021438 	dsll	v0,v0,0x10
ffffffffa080305c:	8c43cbf0 	lw	v1,-13328(v0)
ffffffffa0803060:	3c020000 	lui	v0,0x0
ffffffffa0803064:	64420000 	daddiu	v0,v0,0
ffffffffa0803068:	00021438 	dsll	v0,v0,0x10
ffffffffa080306c:	6442a081 	daddiu	v0,v0,-24447
ffffffffa0803070:	00021438 	dsll	v0,v0,0x10
ffffffffa0803074:	8c42cbf4 	lw	v0,-13324(v0)
ffffffffa0803078:	0060202d 	move	a0,v1
ffffffffa080307c:	0040282d 	move	a1,v0
ffffffffa0803080:	0c20094c 	jal	ffffffffa0802530 <vt100_move_cursor>
ffffffffa0803084:	00000000 	nop
ffffffffa0803088:	03c0e82d 	move	sp,s8
ffffffffa080308c:	dfbf0018 	ld	ra,24(sp)
ffffffffa0803090:	dfbe0010 	ld	s8,16(sp)
ffffffffa0803094:	67bd0020 	daddiu	sp,sp,32
ffffffffa0803098:	03e00008 	jr	ra
ffffffffa080309c:	00000000 	nop

ffffffffa08030a0 <system_call_helper>:
ffffffffa08030a0:	67bdffd0 	daddiu	sp,sp,-48
ffffffffa08030a4:	ffbe0028 	sd	s8,40(sp)
ffffffffa08030a8:	03a0f02d 	move	s8,sp
ffffffffa08030ac:	ffc40000 	sd	a0,0(s8)
ffffffffa08030b0:	ffc50008 	sd	a1,8(s8)
ffffffffa08030b4:	ffc60010 	sd	a2,16(s8)
ffffffffa08030b8:	ffc70018 	sd	a3,24(s8)
ffffffffa08030bc:	03c0e82d 	move	sp,s8
ffffffffa08030c0:	dfbe0028 	ld	s8,40(sp)
ffffffffa08030c4:	67bd0030 	daddiu	sp,sp,48
ffffffffa08030c8:	03e00008 	jr	ra
ffffffffa08030cc:	00000000 	nop

ffffffffa08030d0 <sys_spawn>:
ffffffffa08030d0:	67bdffe0 	daddiu	sp,sp,-32
ffffffffa08030d4:	ffbe0018 	sd	s8,24(sp)
ffffffffa08030d8:	03a0f02d 	move	s8,sp
ffffffffa08030dc:	ffc40000 	sd	a0,0(s8)
ffffffffa08030e0:	03c0e82d 	move	sp,s8
ffffffffa08030e4:	dfbe0018 	ld	s8,24(sp)
ffffffffa08030e8:	67bd0020 	daddiu	sp,sp,32
ffffffffa08030ec:	03e00008 	jr	ra
ffffffffa08030f0:	00000000 	nop

ffffffffa08030f4 <sys_exit>:
ffffffffa08030f4:	67bdfff0 	daddiu	sp,sp,-16
ffffffffa08030f8:	ffbe0008 	sd	s8,8(sp)
ffffffffa08030fc:	03a0f02d 	move	s8,sp
ffffffffa0803100:	03c0e82d 	move	sp,s8
ffffffffa0803104:	dfbe0008 	ld	s8,8(sp)
ffffffffa0803108:	67bd0010 	daddiu	sp,sp,16
ffffffffa080310c:	03e00008 	jr	ra
ffffffffa0803110:	00000000 	nop

ffffffffa0803114 <sys_sleep>:
ffffffffa0803114:	67bdffe0 	daddiu	sp,sp,-32
ffffffffa0803118:	ffbe0018 	sd	s8,24(sp)
ffffffffa080311c:	03a0f02d 	move	s8,sp
ffffffffa0803120:	0080102d 	move	v0,a0
ffffffffa0803124:	00021000 	sll	v0,v0,0x0
ffffffffa0803128:	afc20000 	sw	v0,0(s8)
ffffffffa080312c:	03c0e82d 	move	sp,s8
ffffffffa0803130:	dfbe0018 	ld	s8,24(sp)
ffffffffa0803134:	67bd0020 	daddiu	sp,sp,32
ffffffffa0803138:	03e00008 	jr	ra
ffffffffa080313c:	00000000 	nop

ffffffffa0803140 <sys_kill>:
ffffffffa0803140:	67bdffe0 	daddiu	sp,sp,-32
ffffffffa0803144:	ffbe0018 	sd	s8,24(sp)
ffffffffa0803148:	03a0f02d 	move	s8,sp
ffffffffa080314c:	0080102d 	move	v0,a0
ffffffffa0803150:	00021000 	sll	v0,v0,0x0
ffffffffa0803154:	afc20000 	sw	v0,0(s8)
ffffffffa0803158:	03c0e82d 	move	sp,s8
ffffffffa080315c:	dfbe0018 	ld	s8,24(sp)
ffffffffa0803160:	67bd0020 	daddiu	sp,sp,32
ffffffffa0803164:	03e00008 	jr	ra
ffffffffa0803168:	00000000 	nop

ffffffffa080316c <sys_waitpid>:
ffffffffa080316c:	67bdffe0 	daddiu	sp,sp,-32
ffffffffa0803170:	ffbe0018 	sd	s8,24(sp)
ffffffffa0803174:	03a0f02d 	move	s8,sp
ffffffffa0803178:	0080102d 	move	v0,a0
ffffffffa080317c:	00021000 	sll	v0,v0,0x0
ffffffffa0803180:	afc20000 	sw	v0,0(s8)
ffffffffa0803184:	03c0e82d 	move	sp,s8
ffffffffa0803188:	dfbe0018 	ld	s8,24(sp)
ffffffffa080318c:	67bd0020 	daddiu	sp,sp,32
ffffffffa0803190:	03e00008 	jr	ra
ffffffffa0803194:	00000000 	nop

ffffffffa0803198 <sys_write>:
ffffffffa0803198:	67bdffe0 	daddiu	sp,sp,-32
ffffffffa080319c:	ffbe0018 	sd	s8,24(sp)
ffffffffa08031a0:	03a0f02d 	move	s8,sp
ffffffffa08031a4:	ffc40000 	sd	a0,0(s8)
ffffffffa08031a8:	03c0e82d 	move	sp,s8
ffffffffa08031ac:	dfbe0018 	ld	s8,24(sp)
ffffffffa08031b0:	67bd0020 	daddiu	sp,sp,32
ffffffffa08031b4:	03e00008 	jr	ra
ffffffffa08031b8:	00000000 	nop

ffffffffa08031bc <sys_reflush>:
ffffffffa08031bc:	67bdfff0 	daddiu	sp,sp,-16
ffffffffa08031c0:	ffbe0008 	sd	s8,8(sp)
ffffffffa08031c4:	03a0f02d 	move	s8,sp
ffffffffa08031c8:	03c0e82d 	move	sp,s8
ffffffffa08031cc:	dfbe0008 	ld	s8,8(sp)
ffffffffa08031d0:	67bd0010 	daddiu	sp,sp,16
ffffffffa08031d4:	03e00008 	jr	ra
ffffffffa08031d8:	00000000 	nop

ffffffffa08031dc <sys_move_cursor>:
ffffffffa08031dc:	67bdffe0 	daddiu	sp,sp,-32
ffffffffa08031e0:	ffbe0018 	sd	s8,24(sp)
ffffffffa08031e4:	03a0f02d 	move	s8,sp
ffffffffa08031e8:	0080182d 	move	v1,a0
ffffffffa08031ec:	00a0102d 	move	v0,a1
ffffffffa08031f0:	00031800 	sll	v1,v1,0x0
ffffffffa08031f4:	afc30000 	sw	v1,0(s8)
ffffffffa08031f8:	00021000 	sll	v0,v0,0x0
ffffffffa08031fc:	afc20004 	sw	v0,4(s8)
ffffffffa0803200:	03c0e82d 	move	sp,s8
ffffffffa0803204:	dfbe0018 	ld	s8,24(sp)
ffffffffa0803208:	67bd0020 	daddiu	sp,sp,32
ffffffffa080320c:	03e00008 	jr	ra
ffffffffa0803210:	00000000 	nop

ffffffffa0803214 <mutex_lock_init>:
ffffffffa0803214:	67bdffe0 	daddiu	sp,sp,-32
ffffffffa0803218:	ffbe0018 	sd	s8,24(sp)
ffffffffa080321c:	03a0f02d 	move	s8,sp
ffffffffa0803220:	ffc40000 	sd	a0,0(s8)
ffffffffa0803224:	03c0e82d 	move	sp,s8
ffffffffa0803228:	dfbe0018 	ld	s8,24(sp)
ffffffffa080322c:	67bd0020 	daddiu	sp,sp,32
ffffffffa0803230:	03e00008 	jr	ra
ffffffffa0803234:	00000000 	nop

ffffffffa0803238 <mutex_lock_acquire>:
ffffffffa0803238:	67bdffe0 	daddiu	sp,sp,-32
ffffffffa080323c:	ffbe0018 	sd	s8,24(sp)
ffffffffa0803240:	03a0f02d 	move	s8,sp
ffffffffa0803244:	ffc40000 	sd	a0,0(s8)
ffffffffa0803248:	03c0e82d 	move	sp,s8
ffffffffa080324c:	dfbe0018 	ld	s8,24(sp)
ffffffffa0803250:	67bd0020 	daddiu	sp,sp,32
ffffffffa0803254:	03e00008 	jr	ra
ffffffffa0803258:	00000000 	nop

ffffffffa080325c <mutex_lock_release>:
ffffffffa080325c:	67bdffe0 	daddiu	sp,sp,-32
ffffffffa0803260:	ffbe0018 	sd	s8,24(sp)
ffffffffa0803264:	03a0f02d 	move	s8,sp
ffffffffa0803268:	ffc40000 	sd	a0,0(s8)
ffffffffa080326c:	03c0e82d 	move	sp,s8
ffffffffa0803270:	dfbe0018 	ld	s8,24(sp)
ffffffffa0803274:	67bd0020 	daddiu	sp,sp,32
ffffffffa0803278:	03e00008 	jr	ra
ffffffffa080327c:	00000000 	nop

ffffffffa0803280 <condition_init>:
ffffffffa0803280:	67bdffe0 	daddiu	sp,sp,-32
ffffffffa0803284:	ffbe0018 	sd	s8,24(sp)
ffffffffa0803288:	03a0f02d 	move	s8,sp
ffffffffa080328c:	ffc40000 	sd	a0,0(s8)
ffffffffa0803290:	03c0e82d 	move	sp,s8
ffffffffa0803294:	dfbe0018 	ld	s8,24(sp)
ffffffffa0803298:	67bd0020 	daddiu	sp,sp,32
ffffffffa080329c:	03e00008 	jr	ra
ffffffffa08032a0:	00000000 	nop

ffffffffa08032a4 <condition_wait>:
ffffffffa08032a4:	67bdffe0 	daddiu	sp,sp,-32
ffffffffa08032a8:	ffbe0018 	sd	s8,24(sp)
ffffffffa08032ac:	03a0f02d 	move	s8,sp
ffffffffa08032b0:	ffc40000 	sd	a0,0(s8)
ffffffffa08032b4:	ffc50008 	sd	a1,8(s8)
ffffffffa08032b8:	03c0e82d 	move	sp,s8
ffffffffa08032bc:	dfbe0018 	ld	s8,24(sp)
ffffffffa08032c0:	67bd0020 	daddiu	sp,sp,32
ffffffffa08032c4:	03e00008 	jr	ra
ffffffffa08032c8:	00000000 	nop

ffffffffa08032cc <condition_signal>:
ffffffffa08032cc:	67bdffe0 	daddiu	sp,sp,-32
ffffffffa08032d0:	ffbe0018 	sd	s8,24(sp)
ffffffffa08032d4:	03a0f02d 	move	s8,sp
ffffffffa08032d8:	ffc40000 	sd	a0,0(s8)
ffffffffa08032dc:	03c0e82d 	move	sp,s8
ffffffffa08032e0:	dfbe0018 	ld	s8,24(sp)
ffffffffa08032e4:	67bd0020 	daddiu	sp,sp,32
ffffffffa08032e8:	03e00008 	jr	ra
ffffffffa08032ec:	00000000 	nop

ffffffffa08032f0 <condition_broadcast>:
ffffffffa08032f0:	67bdffe0 	daddiu	sp,sp,-32
ffffffffa08032f4:	ffbe0018 	sd	s8,24(sp)
ffffffffa08032f8:	03a0f02d 	move	s8,sp
ffffffffa08032fc:	ffc40000 	sd	a0,0(s8)
ffffffffa0803300:	03c0e82d 	move	sp,s8
ffffffffa0803304:	dfbe0018 	ld	s8,24(sp)
ffffffffa0803308:	67bd0020 	daddiu	sp,sp,32
ffffffffa080330c:	03e00008 	jr	ra
ffffffffa0803310:	00000000 	nop

ffffffffa0803314 <semaphore_init>:
ffffffffa0803314:	67bdffe0 	daddiu	sp,sp,-32
ffffffffa0803318:	ffbe0018 	sd	s8,24(sp)
ffffffffa080331c:	03a0f02d 	move	s8,sp
ffffffffa0803320:	ffc40000 	sd	a0,0(s8)
ffffffffa0803324:	00a0102d 	move	v0,a1
ffffffffa0803328:	00021000 	sll	v0,v0,0x0
ffffffffa080332c:	afc20008 	sw	v0,8(s8)
ffffffffa0803330:	03c0e82d 	move	sp,s8
ffffffffa0803334:	dfbe0018 	ld	s8,24(sp)
ffffffffa0803338:	67bd0020 	daddiu	sp,sp,32
ffffffffa080333c:	03e00008 	jr	ra
ffffffffa0803340:	00000000 	nop

ffffffffa0803344 <semaphore_up>:
ffffffffa0803344:	67bdffe0 	daddiu	sp,sp,-32
ffffffffa0803348:	ffbe0018 	sd	s8,24(sp)
ffffffffa080334c:	03a0f02d 	move	s8,sp
ffffffffa0803350:	ffc40000 	sd	a0,0(s8)
ffffffffa0803354:	03c0e82d 	move	sp,s8
ffffffffa0803358:	dfbe0018 	ld	s8,24(sp)
ffffffffa080335c:	67bd0020 	daddiu	sp,sp,32
ffffffffa0803360:	03e00008 	jr	ra
ffffffffa0803364:	00000000 	nop

ffffffffa0803368 <semaphore_down>:
ffffffffa0803368:	67bdffe0 	daddiu	sp,sp,-32
ffffffffa080336c:	ffbe0018 	sd	s8,24(sp)
ffffffffa0803370:	03a0f02d 	move	s8,sp
ffffffffa0803374:	ffc40000 	sd	a0,0(s8)
ffffffffa0803378:	03c0e82d 	move	sp,s8
ffffffffa080337c:	dfbe0018 	ld	s8,24(sp)
ffffffffa0803380:	67bd0020 	daddiu	sp,sp,32
ffffffffa0803384:	03e00008 	jr	ra
ffffffffa0803388:	00000000 	nop

ffffffffa080338c <barrier_init>:
ffffffffa080338c:	67bdffe0 	daddiu	sp,sp,-32
ffffffffa0803390:	ffbe0018 	sd	s8,24(sp)
ffffffffa0803394:	03a0f02d 	move	s8,sp
ffffffffa0803398:	ffc40000 	sd	a0,0(s8)
ffffffffa080339c:	00a0102d 	move	v0,a1
ffffffffa08033a0:	00021000 	sll	v0,v0,0x0
ffffffffa08033a4:	afc20008 	sw	v0,8(s8)
ffffffffa08033a8:	03c0e82d 	move	sp,s8
ffffffffa08033ac:	dfbe0018 	ld	s8,24(sp)
ffffffffa08033b0:	67bd0020 	daddiu	sp,sp,32
ffffffffa08033b4:	03e00008 	jr	ra
ffffffffa08033b8:	00000000 	nop

ffffffffa08033bc <barrier_wait>:
ffffffffa08033bc:	67bdffe0 	daddiu	sp,sp,-32
ffffffffa08033c0:	ffbe0018 	sd	s8,24(sp)
ffffffffa08033c4:	03a0f02d 	move	s8,sp
ffffffffa08033c8:	ffc40000 	sd	a0,0(s8)
ffffffffa08033cc:	03c0e82d 	move	sp,s8
ffffffffa08033d0:	dfbe0018 	ld	s8,24(sp)
ffffffffa08033d4:	67bd0020 	daddiu	sp,sp,32
ffffffffa08033d8:	03e00008 	jr	ra
ffffffffa08033dc:	00000000 	nop

ffffffffa08033e0 <sys_read_shell_buff>:
ffffffffa08033e0:	67bdffe0 	daddiu	sp,sp,-32
ffffffffa08033e4:	ffbe0018 	sd	s8,24(sp)
ffffffffa08033e8:	03a0f02d 	move	s8,sp
ffffffffa08033ec:	ffc40000 	sd	a0,0(s8)
ffffffffa08033f0:	03c0e82d 	move	sp,s8
ffffffffa08033f4:	dfbe0018 	ld	s8,24(sp)
ffffffffa08033f8:	67bd0020 	daddiu	sp,sp,32
ffffffffa08033fc:	03e00008 	jr	ra
ffffffffa0803400:	00000000 	nop

ffffffffa0803404 <sys_process_show>:
ffffffffa0803404:	67bdfff0 	daddiu	sp,sp,-16
ffffffffa0803408:	ffbe0008 	sd	s8,8(sp)
ffffffffa080340c:	03a0f02d 	move	s8,sp
ffffffffa0803410:	03c0e82d 	move	sp,s8
ffffffffa0803414:	dfbe0008 	ld	s8,8(sp)
ffffffffa0803418:	67bd0010 	daddiu	sp,sp,16
ffffffffa080341c:	03e00008 	jr	ra
ffffffffa0803420:	00000000 	nop

ffffffffa0803424 <sys_screen_clear>:
ffffffffa0803424:	67bdffe0 	daddiu	sp,sp,-32
ffffffffa0803428:	ffbe0018 	sd	s8,24(sp)
ffffffffa080342c:	03a0f02d 	move	s8,sp
ffffffffa0803430:	0080182d 	move	v1,a0
ffffffffa0803434:	00a0102d 	move	v0,a1
ffffffffa0803438:	00031800 	sll	v1,v1,0x0
ffffffffa080343c:	afc30000 	sw	v1,0(s8)
ffffffffa0803440:	00021000 	sll	v0,v0,0x0
ffffffffa0803444:	afc20004 	sw	v0,4(s8)
ffffffffa0803448:	03c0e82d 	move	sp,s8
ffffffffa080344c:	dfbe0018 	ld	s8,24(sp)
ffffffffa0803450:	67bd0020 	daddiu	sp,sp,32
ffffffffa0803454:	03e00008 	jr	ra
ffffffffa0803458:	00000000 	nop

ffffffffa080345c <sys_getpid>:
ffffffffa080345c:	67bdfff0 	daddiu	sp,sp,-16
ffffffffa0803460:	ffbe0008 	sd	s8,8(sp)
ffffffffa0803464:	03a0f02d 	move	s8,sp
ffffffffa0803468:	03c0e82d 	move	sp,s8
ffffffffa080346c:	dfbe0008 	ld	s8,8(sp)
ffffffffa0803470:	67bd0010 	daddiu	sp,sp,16
ffffffffa0803474:	03e00008 	jr	ra
ffffffffa0803478:	00000000 	nop

ffffffffa080347c <sys_mkfs>:
ffffffffa080347c:	67bdfff0 	daddiu	sp,sp,-16
ffffffffa0803480:	ffbe0008 	sd	s8,8(sp)
ffffffffa0803484:	03a0f02d 	move	s8,sp
ffffffffa0803488:	03c0e82d 	move	sp,s8
ffffffffa080348c:	dfbe0008 	ld	s8,8(sp)
ffffffffa0803490:	67bd0010 	daddiu	sp,sp,16
ffffffffa0803494:	03e00008 	jr	ra
ffffffffa0803498:	00000000 	nop

ffffffffa080349c <sys_mkdir>:
ffffffffa080349c:	67bdffe0 	daddiu	sp,sp,-32
ffffffffa08034a0:	ffbe0018 	sd	s8,24(sp)
ffffffffa08034a4:	03a0f02d 	move	s8,sp
ffffffffa08034a8:	ffc40000 	sd	a0,0(s8)
ffffffffa08034ac:	03c0e82d 	move	sp,s8
ffffffffa08034b0:	dfbe0018 	ld	s8,24(sp)
ffffffffa08034b4:	67bd0020 	daddiu	sp,sp,32
ffffffffa08034b8:	03e00008 	jr	ra
ffffffffa08034bc:	00000000 	nop

ffffffffa08034c0 <sys_readdir>:
ffffffffa08034c0:	67bdffe0 	daddiu	sp,sp,-32
ffffffffa08034c4:	ffbe0018 	sd	s8,24(sp)
ffffffffa08034c8:	03a0f02d 	move	s8,sp
ffffffffa08034cc:	ffc40000 	sd	a0,0(s8)
ffffffffa08034d0:	03c0e82d 	move	sp,s8
ffffffffa08034d4:	dfbe0018 	ld	s8,24(sp)
ffffffffa08034d8:	67bd0020 	daddiu	sp,sp,32
ffffffffa08034dc:	03e00008 	jr	ra
ffffffffa08034e0:	00000000 	nop

ffffffffa08034e4 <sys_enterdir>:
ffffffffa08034e4:	67bdffe0 	daddiu	sp,sp,-32
ffffffffa08034e8:	ffbe0018 	sd	s8,24(sp)
ffffffffa08034ec:	03a0f02d 	move	s8,sp
ffffffffa08034f0:	ffc40000 	sd	a0,0(s8)
ffffffffa08034f4:	03c0e82d 	move	sp,s8
ffffffffa08034f8:	dfbe0018 	ld	s8,24(sp)
ffffffffa08034fc:	67bd0020 	daddiu	sp,sp,32
ffffffffa0803500:	03e00008 	jr	ra
ffffffffa0803504:	00000000 	nop

ffffffffa0803508 <sys_rmdir>:
ffffffffa0803508:	67bdffe0 	daddiu	sp,sp,-32
ffffffffa080350c:	ffbe0018 	sd	s8,24(sp)
ffffffffa0803510:	03a0f02d 	move	s8,sp
ffffffffa0803514:	ffc40000 	sd	a0,0(s8)
ffffffffa0803518:	03c0e82d 	move	sp,s8
ffffffffa080351c:	dfbe0018 	ld	s8,24(sp)
ffffffffa0803520:	67bd0020 	daddiu	sp,sp,32
ffffffffa0803524:	03e00008 	jr	ra
ffffffffa0803528:	00000000 	nop

ffffffffa080352c <sys_print_fs>:
ffffffffa080352c:	67bdffe0 	daddiu	sp,sp,-32
ffffffffa0803530:	ffbe0018 	sd	s8,24(sp)
ffffffffa0803534:	03a0f02d 	move	s8,sp
ffffffffa0803538:	ffc40000 	sd	a0,0(s8)
ffffffffa080353c:	03c0e82d 	move	sp,s8
ffffffffa0803540:	dfbe0018 	ld	s8,24(sp)
ffffffffa0803544:	67bd0020 	daddiu	sp,sp,32
ffffffffa0803548:	03e00008 	jr	ra
ffffffffa080354c:	00000000 	nop

ffffffffa0803550 <sys_mknod>:
ffffffffa0803550:	67bdffe0 	daddiu	sp,sp,-32
ffffffffa0803554:	ffbe0018 	sd	s8,24(sp)
ffffffffa0803558:	03a0f02d 	move	s8,sp
ffffffffa080355c:	ffc40000 	sd	a0,0(s8)
ffffffffa0803560:	03c0e82d 	move	sp,s8
ffffffffa0803564:	dfbe0018 	ld	s8,24(sp)
ffffffffa0803568:	67bd0020 	daddiu	sp,sp,32
ffffffffa080356c:	03e00008 	jr	ra
ffffffffa0803570:	00000000 	nop

ffffffffa0803574 <sys_fopen>:
ffffffffa0803574:	67bdffe0 	daddiu	sp,sp,-32
ffffffffa0803578:	ffbe0018 	sd	s8,24(sp)
ffffffffa080357c:	03a0f02d 	move	s8,sp
ffffffffa0803580:	ffc40000 	sd	a0,0(s8)
ffffffffa0803584:	00a0102d 	move	v0,a1
ffffffffa0803588:	00021000 	sll	v0,v0,0x0
ffffffffa080358c:	afc20008 	sw	v0,8(s8)
ffffffffa0803590:	03c0e82d 	move	sp,s8
ffffffffa0803594:	dfbe0018 	ld	s8,24(sp)
ffffffffa0803598:	67bd0020 	daddiu	sp,sp,32
ffffffffa080359c:	03e00008 	jr	ra
ffffffffa08035a0:	00000000 	nop

ffffffffa08035a4 <sys_fwrite>:
ffffffffa08035a4:	67bdffe0 	daddiu	sp,sp,-32
ffffffffa08035a8:	ffbe0018 	sd	s8,24(sp)
ffffffffa08035ac:	03a0f02d 	move	s8,sp
ffffffffa08035b0:	0080182d 	move	v1,a0
ffffffffa08035b4:	ffc50008 	sd	a1,8(s8)
ffffffffa08035b8:	00c0102d 	move	v0,a2
ffffffffa08035bc:	00031800 	sll	v1,v1,0x0
ffffffffa08035c0:	afc30000 	sw	v1,0(s8)
ffffffffa08035c4:	00021000 	sll	v0,v0,0x0
ffffffffa08035c8:	afc20004 	sw	v0,4(s8)
ffffffffa08035cc:	03c0e82d 	move	sp,s8
ffffffffa08035d0:	dfbe0018 	ld	s8,24(sp)
ffffffffa08035d4:	67bd0020 	daddiu	sp,sp,32
ffffffffa08035d8:	03e00008 	jr	ra
ffffffffa08035dc:	00000000 	nop

ffffffffa08035e0 <sys_cat>:
ffffffffa08035e0:	67bdffe0 	daddiu	sp,sp,-32
ffffffffa08035e4:	ffbe0018 	sd	s8,24(sp)
ffffffffa08035e8:	03a0f02d 	move	s8,sp
ffffffffa08035ec:	ffc40000 	sd	a0,0(s8)
ffffffffa08035f0:	03c0e82d 	move	sp,s8
ffffffffa08035f4:	dfbe0018 	ld	s8,24(sp)
ffffffffa08035f8:	67bd0020 	daddiu	sp,sp,32
ffffffffa08035fc:	03e00008 	jr	ra
ffffffffa0803600:	00000000 	nop

ffffffffa0803604 <sys_fread>:
ffffffffa0803604:	67bdffe0 	daddiu	sp,sp,-32
ffffffffa0803608:	ffbe0018 	sd	s8,24(sp)
ffffffffa080360c:	03a0f02d 	move	s8,sp
ffffffffa0803610:	0080182d 	move	v1,a0
ffffffffa0803614:	ffc50008 	sd	a1,8(s8)
ffffffffa0803618:	00c0102d 	move	v0,a2
ffffffffa080361c:	00031800 	sll	v1,v1,0x0
ffffffffa0803620:	afc30000 	sw	v1,0(s8)
ffffffffa0803624:	00021000 	sll	v0,v0,0x0
ffffffffa0803628:	afc20004 	sw	v0,4(s8)
ffffffffa080362c:	03c0e82d 	move	sp,s8
ffffffffa0803630:	dfbe0018 	ld	s8,24(sp)
ffffffffa0803634:	67bd0020 	daddiu	sp,sp,32
ffffffffa0803638:	03e00008 	jr	ra
ffffffffa080363c:	00000000 	nop

ffffffffa0803640 <sys_close>:
ffffffffa0803640:	67bdffe0 	daddiu	sp,sp,-32
ffffffffa0803644:	ffbe0018 	sd	s8,24(sp)
ffffffffa0803648:	03a0f02d 	move	s8,sp
ffffffffa080364c:	0080102d 	move	v0,a0
ffffffffa0803650:	00021000 	sll	v0,v0,0x0
ffffffffa0803654:	afc20000 	sw	v0,0(s8)
ffffffffa0803658:	03c0e82d 	move	sp,s8
ffffffffa080365c:	dfbe0018 	ld	s8,24(sp)
ffffffffa0803660:	67bd0020 	daddiu	sp,sp,32
ffffffffa0803664:	03e00008 	jr	ra
ffffffffa0803668:	00000000 	nop

ffffffffa080366c <sys_net_recv>:
ffffffffa080366c:	67bdffd0 	daddiu	sp,sp,-48
ffffffffa0803670:	ffbe0028 	sd	s8,40(sp)
ffffffffa0803674:	03a0f02d 	move	s8,sp
ffffffffa0803678:	ffc40000 	sd	a0,0(s8)
ffffffffa080367c:	ffc50008 	sd	a1,8(s8)
ffffffffa0803680:	ffc60010 	sd	a2,16(s8)
ffffffffa0803684:	03c0e82d 	move	sp,s8
ffffffffa0803688:	dfbe0028 	ld	s8,40(sp)
ffffffffa080368c:	67bd0030 	daddiu	sp,sp,48
ffffffffa0803690:	03e00008 	jr	ra
ffffffffa0803694:	00000000 	nop

ffffffffa0803698 <sys_net_send>:
ffffffffa0803698:	67bdffe0 	daddiu	sp,sp,-32
ffffffffa080369c:	ffbe0018 	sd	s8,24(sp)
ffffffffa08036a0:	03a0f02d 	move	s8,sp
ffffffffa08036a4:	ffc40000 	sd	a0,0(s8)
ffffffffa08036a8:	ffc50008 	sd	a1,8(s8)
ffffffffa08036ac:	03c0e82d 	move	sp,s8
ffffffffa08036b0:	dfbe0018 	ld	s8,24(sp)
ffffffffa08036b4:	67bd0020 	daddiu	sp,sp,32
ffffffffa08036b8:	03e00008 	jr	ra
ffffffffa08036bc:	00000000 	nop

ffffffffa08036c0 <sys_init_mac>:
ffffffffa08036c0:	67bdfff0 	daddiu	sp,sp,-16
ffffffffa08036c4:	ffbe0008 	sd	s8,8(sp)
ffffffffa08036c8:	03a0f02d 	move	s8,sp
ffffffffa08036cc:	03c0e82d 	move	sp,s8
ffffffffa08036d0:	dfbe0008 	ld	s8,8(sp)
ffffffffa08036d4:	67bd0010 	daddiu	sp,sp,16
ffffffffa08036d8:	03e00008 	jr	ra
ffffffffa08036dc:	00000000 	nop

ffffffffa08036e0 <strlen>:
ffffffffa08036e0:	67bdffd0 	daddiu	sp,sp,-48
ffffffffa08036e4:	ffbe0028 	sd	s8,40(sp)
ffffffffa08036e8:	03a0f02d 	move	s8,sp
ffffffffa08036ec:	ffc40010 	sd	a0,16(s8)
ffffffffa08036f0:	afc00000 	sw	zero,0(s8)
ffffffffa08036f4:	08200dc2 	j	ffffffffa0803708 <strlen+0x28>
ffffffffa08036f8:	00000000 	nop
ffffffffa08036fc:	8fc20000 	lw	v0,0(s8)
ffffffffa0803700:	24420001 	addiu	v0,v0,1
ffffffffa0803704:	afc20000 	sw	v0,0(s8)
ffffffffa0803708:	8fc20000 	lw	v0,0(s8)
ffffffffa080370c:	dfc30010 	ld	v1,16(s8)
ffffffffa0803710:	0062102d 	daddu	v0,v1,v0
ffffffffa0803714:	80420000 	lb	v0,0(v0)
ffffffffa0803718:	1440fff8 	bnez	v0,ffffffffa08036fc <strlen+0x1c>
ffffffffa080371c:	00000000 	nop
ffffffffa0803720:	8fc20000 	lw	v0,0(s8)
ffffffffa0803724:	03c0e82d 	move	sp,s8
ffffffffa0803728:	dfbe0028 	ld	s8,40(sp)
ffffffffa080372c:	67bd0030 	daddiu	sp,sp,48
ffffffffa0803730:	03e00008 	jr	ra
ffffffffa0803734:	00000000 	nop

ffffffffa0803738 <memcpy>:
ffffffffa0803738:	67bdffd0 	daddiu	sp,sp,-48
ffffffffa080373c:	ffbe0028 	sd	s8,40(sp)
ffffffffa0803740:	03a0f02d 	move	s8,sp
ffffffffa0803744:	ffc40000 	sd	a0,0(s8)
ffffffffa0803748:	ffc50008 	sd	a1,8(s8)
ffffffffa080374c:	00c0102d 	move	v0,a2
ffffffffa0803750:	00021000 	sll	v0,v0,0x0
ffffffffa0803754:	afc20010 	sw	v0,16(s8)
ffffffffa0803758:	08200de3 	j	ffffffffa080378c <memcpy+0x54>
ffffffffa080375c:	00000000 	nop
ffffffffa0803760:	dfc20000 	ld	v0,0(s8)
ffffffffa0803764:	64430001 	daddiu	v1,v0,1
ffffffffa0803768:	ffc30000 	sd	v1,0(s8)
ffffffffa080376c:	dfc30008 	ld	v1,8(s8)
ffffffffa0803770:	64640001 	daddiu	a0,v1,1
ffffffffa0803774:	ffc40008 	sd	a0,8(s8)
ffffffffa0803778:	90630000 	lbu	v1,0(v1)
ffffffffa080377c:	a0430000 	sb	v1,0(v0)
ffffffffa0803780:	8fc20010 	lw	v0,16(s8)
ffffffffa0803784:	2442ffff 	addiu	v0,v0,-1
ffffffffa0803788:	afc20010 	sw	v0,16(s8)
ffffffffa080378c:	8fc20010 	lw	v0,16(s8)
ffffffffa0803790:	1440fff3 	bnez	v0,ffffffffa0803760 <memcpy+0x28>
ffffffffa0803794:	00000000 	nop
ffffffffa0803798:	03c0e82d 	move	sp,s8
ffffffffa080379c:	dfbe0028 	ld	s8,40(sp)
ffffffffa08037a0:	67bd0030 	daddiu	sp,sp,48
ffffffffa08037a4:	03e00008 	jr	ra
ffffffffa08037a8:	00000000 	nop

ffffffffa08037ac <memset>:
ffffffffa08037ac:	67bdffd0 	daddiu	sp,sp,-48
ffffffffa08037b0:	ffbe0028 	sd	s8,40(sp)
ffffffffa08037b4:	03a0f02d 	move	s8,sp
ffffffffa08037b8:	ffc40010 	sd	a0,16(s8)
ffffffffa08037bc:	00a0182d 	move	v1,a1
ffffffffa08037c0:	00c0102d 	move	v0,a2
ffffffffa08037c4:	00031800 	sll	v1,v1,0x0
ffffffffa08037c8:	a3c30018 	sb	v1,24(s8)
ffffffffa08037cc:	00021000 	sll	v0,v0,0x0
ffffffffa08037d0:	afc2001c 	sw	v0,28(s8)
ffffffffa08037d4:	dfc20010 	ld	v0,16(s8)
ffffffffa08037d8:	ffc20000 	sd	v0,0(s8)
ffffffffa08037dc:	08200e01 	j	ffffffffa0803804 <memset+0x58>
ffffffffa08037e0:	00000000 	nop
ffffffffa08037e4:	dfc20000 	ld	v0,0(s8)
ffffffffa08037e8:	64430001 	daddiu	v1,v0,1
ffffffffa08037ec:	ffc30000 	sd	v1,0(s8)
ffffffffa08037f0:	93c30018 	lbu	v1,24(s8)
ffffffffa08037f4:	a0430000 	sb	v1,0(v0)
ffffffffa08037f8:	8fc2001c 	lw	v0,28(s8)
ffffffffa08037fc:	2442ffff 	addiu	v0,v0,-1
ffffffffa0803800:	afc2001c 	sw	v0,28(s8)
ffffffffa0803804:	8fc2001c 	lw	v0,28(s8)
ffffffffa0803808:	1440fff6 	bnez	v0,ffffffffa08037e4 <memset+0x38>
ffffffffa080380c:	00000000 	nop
ffffffffa0803810:	03c0e82d 	move	sp,s8
ffffffffa0803814:	dfbe0028 	ld	s8,40(sp)
ffffffffa0803818:	67bd0030 	daddiu	sp,sp,48
ffffffffa080381c:	03e00008 	jr	ra
ffffffffa0803820:	00000000 	nop

ffffffffa0803824 <bzero>:
ffffffffa0803824:	67bdffe0 	daddiu	sp,sp,-32
ffffffffa0803828:	ffbf0018 	sd	ra,24(sp)
ffffffffa080382c:	ffbe0010 	sd	s8,16(sp)
ffffffffa0803830:	03a0f02d 	move	s8,sp
ffffffffa0803834:	ffc40000 	sd	a0,0(s8)
ffffffffa0803838:	00a0102d 	move	v0,a1
ffffffffa080383c:	00021000 	sll	v0,v0,0x0
ffffffffa0803840:	afc20008 	sw	v0,8(s8)
ffffffffa0803844:	8fc20008 	lw	v0,8(s8)
ffffffffa0803848:	dfc40000 	ld	a0,0(s8)
ffffffffa080384c:	0000282d 	move	a1,zero
ffffffffa0803850:	0040302d 	move	a2,v0
ffffffffa0803854:	0c200deb 	jal	ffffffffa08037ac <memset>
ffffffffa0803858:	00000000 	nop
ffffffffa080385c:	03c0e82d 	move	sp,s8
ffffffffa0803860:	dfbf0018 	ld	ra,24(sp)
ffffffffa0803864:	dfbe0010 	ld	s8,16(sp)
ffffffffa0803868:	67bd0020 	daddiu	sp,sp,32
ffffffffa080386c:	03e00008 	jr	ra
ffffffffa0803870:	00000000 	nop

ffffffffa0803874 <strcmp>:
ffffffffa0803874:	67bdffd0 	daddiu	sp,sp,-48
ffffffffa0803878:	ffbf0028 	sd	ra,40(sp)
ffffffffa080387c:	ffbe0020 	sd	s8,32(sp)
ffffffffa0803880:	03a0f02d 	move	s8,sp
ffffffffa0803884:	ffc40010 	sd	a0,16(s8)
ffffffffa0803888:	ffc50018 	sd	a1,24(s8)
ffffffffa080388c:	dfc40010 	ld	a0,16(s8)
ffffffffa0803890:	0c200db8 	jal	ffffffffa08036e0 <strlen>
ffffffffa0803894:	00000000 	nop
ffffffffa0803898:	afc20004 	sw	v0,4(s8)
ffffffffa080389c:	dfc40018 	ld	a0,24(s8)
ffffffffa08038a0:	0c200db8 	jal	ffffffffa08036e0 <strlen>
ffffffffa08038a4:	00000000 	nop
ffffffffa08038a8:	afc20008 	sw	v0,8(s8)
ffffffffa08038ac:	afc00000 	sw	zero,0(s8)
ffffffffa08038b0:	08200e4d 	j	ffffffffa0803934 <strcmp+0xc0>
ffffffffa08038b4:	00000000 	nop
ffffffffa08038b8:	8fc20000 	lw	v0,0(s8)
ffffffffa08038bc:	dfc30010 	ld	v1,16(s8)
ffffffffa08038c0:	0062102d 	daddu	v0,v1,v0
ffffffffa08038c4:	80430000 	lb	v1,0(v0)
ffffffffa08038c8:	8fc20000 	lw	v0,0(s8)
ffffffffa08038cc:	dfc40018 	ld	a0,24(s8)
ffffffffa08038d0:	0082102d 	daddu	v0,a0,v0
ffffffffa08038d4:	80420000 	lb	v0,0(v0)
ffffffffa08038d8:	0043102a 	slt	v0,v0,v1
ffffffffa08038dc:	10400004 	beqz	v0,ffffffffa08038f0 <strcmp+0x7c>
ffffffffa08038e0:	00000000 	nop
ffffffffa08038e4:	24020001 	li	v0,1
ffffffffa08038e8:	08200e58 	j	ffffffffa0803960 <strcmp+0xec>
ffffffffa08038ec:	00000000 	nop
ffffffffa08038f0:	8fc20000 	lw	v0,0(s8)
ffffffffa08038f4:	dfc30010 	ld	v1,16(s8)
ffffffffa08038f8:	0062102d 	daddu	v0,v1,v0
ffffffffa08038fc:	80430000 	lb	v1,0(v0)
ffffffffa0803900:	8fc20000 	lw	v0,0(s8)
ffffffffa0803904:	dfc40018 	ld	a0,24(s8)
ffffffffa0803908:	0082102d 	daddu	v0,a0,v0
ffffffffa080390c:	80420000 	lb	v0,0(v0)
ffffffffa0803910:	0062102a 	slt	v0,v1,v0
ffffffffa0803914:	10400004 	beqz	v0,ffffffffa0803928 <strcmp+0xb4>
ffffffffa0803918:	00000000 	nop
ffffffffa080391c:	2402ffff 	li	v0,-1
ffffffffa0803920:	08200e58 	j	ffffffffa0803960 <strcmp+0xec>
ffffffffa0803924:	00000000 	nop
ffffffffa0803928:	8fc20000 	lw	v0,0(s8)
ffffffffa080392c:	24420001 	addiu	v0,v0,1
ffffffffa0803930:	afc20000 	sw	v0,0(s8)
ffffffffa0803934:	8fc30000 	lw	v1,0(s8)
ffffffffa0803938:	8fc20004 	lw	v0,4(s8)
ffffffffa080393c:	0062102a 	slt	v0,v1,v0
ffffffffa0803940:	1440ffdd 	bnez	v0,ffffffffa08038b8 <strcmp+0x44>
ffffffffa0803944:	00000000 	nop
ffffffffa0803948:	8fc30000 	lw	v1,0(s8)
ffffffffa080394c:	8fc20008 	lw	v0,8(s8)
ffffffffa0803950:	0062102a 	slt	v0,v1,v0
ffffffffa0803954:	1440ffd8 	bnez	v0,ffffffffa08038b8 <strcmp+0x44>
ffffffffa0803958:	00000000 	nop
ffffffffa080395c:	0000102d 	move	v0,zero
ffffffffa0803960:	03c0e82d 	move	sp,s8
ffffffffa0803964:	dfbf0028 	ld	ra,40(sp)
ffffffffa0803968:	dfbe0020 	ld	s8,32(sp)
ffffffffa080396c:	67bd0030 	daddiu	sp,sp,48
ffffffffa0803970:	03e00008 	jr	ra
ffffffffa0803974:	00000000 	nop

ffffffffa0803978 <memcmp>:
ffffffffa0803978:	67bdffc0 	daddiu	sp,sp,-64
ffffffffa080397c:	ffbe0038 	sd	s8,56(sp)
ffffffffa0803980:	03a0f02d 	move	s8,sp
ffffffffa0803984:	ffc40010 	sd	a0,16(s8)
ffffffffa0803988:	ffc50018 	sd	a1,24(s8)
ffffffffa080398c:	00c0102d 	move	v0,a2
ffffffffa0803990:	00021000 	sll	v0,v0,0x0
ffffffffa0803994:	afc20020 	sw	v0,32(s8)
ffffffffa0803998:	afc00000 	sw	zero,0(s8)
ffffffffa080399c:	08200e88 	j	ffffffffa0803a20 <memcmp+0xa8>
ffffffffa08039a0:	00000000 	nop
ffffffffa08039a4:	8fc20000 	lw	v0,0(s8)
ffffffffa08039a8:	dfc30010 	ld	v1,16(s8)
ffffffffa08039ac:	0062102d 	daddu	v0,v1,v0
ffffffffa08039b0:	80430000 	lb	v1,0(v0)
ffffffffa08039b4:	8fc20000 	lw	v0,0(s8)
ffffffffa08039b8:	dfc40018 	ld	a0,24(s8)
ffffffffa08039bc:	0082102d 	daddu	v0,a0,v0
ffffffffa08039c0:	80420000 	lb	v0,0(v0)
ffffffffa08039c4:	0043102a 	slt	v0,v0,v1
ffffffffa08039c8:	10400004 	beqz	v0,ffffffffa08039dc <memcmp+0x64>
ffffffffa08039cc:	00000000 	nop
ffffffffa08039d0:	24020001 	li	v0,1
ffffffffa08039d4:	08200e8e 	j	ffffffffa0803a38 <memcmp+0xc0>
ffffffffa08039d8:	00000000 	nop
ffffffffa08039dc:	8fc20000 	lw	v0,0(s8)
ffffffffa08039e0:	dfc30010 	ld	v1,16(s8)
ffffffffa08039e4:	0062102d 	daddu	v0,v1,v0
ffffffffa08039e8:	80430000 	lb	v1,0(v0)
ffffffffa08039ec:	8fc20000 	lw	v0,0(s8)
ffffffffa08039f0:	dfc40018 	ld	a0,24(s8)
ffffffffa08039f4:	0082102d 	daddu	v0,a0,v0
ffffffffa08039f8:	80420000 	lb	v0,0(v0)
ffffffffa08039fc:	0062102a 	slt	v0,v1,v0
ffffffffa0803a00:	10400004 	beqz	v0,ffffffffa0803a14 <memcmp+0x9c>
ffffffffa0803a04:	00000000 	nop
ffffffffa0803a08:	2402ffff 	li	v0,-1
ffffffffa0803a0c:	08200e8e 	j	ffffffffa0803a38 <memcmp+0xc0>
ffffffffa0803a10:	00000000 	nop
ffffffffa0803a14:	8fc20000 	lw	v0,0(s8)
ffffffffa0803a18:	24420001 	addiu	v0,v0,1
ffffffffa0803a1c:	afc20000 	sw	v0,0(s8)
ffffffffa0803a20:	8fc20000 	lw	v0,0(s8)
ffffffffa0803a24:	8fc30020 	lw	v1,32(s8)
ffffffffa0803a28:	0043102b 	sltu	v0,v0,v1
ffffffffa0803a2c:	1440ffdd 	bnez	v0,ffffffffa08039a4 <memcmp+0x2c>
ffffffffa0803a30:	00000000 	nop
ffffffffa0803a34:	0000102d 	move	v0,zero
ffffffffa0803a38:	03c0e82d 	move	sp,s8
ffffffffa0803a3c:	dfbe0038 	ld	s8,56(sp)
ffffffffa0803a40:	67bd0040 	daddiu	sp,sp,64
ffffffffa0803a44:	03e00008 	jr	ra
ffffffffa0803a48:	00000000 	nop

ffffffffa0803a4c <strcpy>:
ffffffffa0803a4c:	67bdffd0 	daddiu	sp,sp,-48
ffffffffa0803a50:	ffbf0028 	sd	ra,40(sp)
ffffffffa0803a54:	ffbe0020 	sd	s8,32(sp)
ffffffffa0803a58:	03a0f02d 	move	s8,sp
ffffffffa0803a5c:	ffc40010 	sd	a0,16(s8)
ffffffffa0803a60:	ffc50018 	sd	a1,24(s8)
ffffffffa0803a64:	dfc40018 	ld	a0,24(s8)
ffffffffa0803a68:	0c200db8 	jal	ffffffffa08036e0 <strlen>
ffffffffa0803a6c:	00000000 	nop
ffffffffa0803a70:	afc20004 	sw	v0,4(s8)
ffffffffa0803a74:	afc00000 	sw	zero,0(s8)
ffffffffa0803a78:	08200eab 	j	ffffffffa0803aac <strcpy+0x60>
ffffffffa0803a7c:	00000000 	nop
ffffffffa0803a80:	8fc20000 	lw	v0,0(s8)
ffffffffa0803a84:	dfc30010 	ld	v1,16(s8)
ffffffffa0803a88:	0062102d 	daddu	v0,v1,v0
ffffffffa0803a8c:	8fc30000 	lw	v1,0(s8)
ffffffffa0803a90:	dfc40018 	ld	a0,24(s8)
ffffffffa0803a94:	0083182d 	daddu	v1,a0,v1
ffffffffa0803a98:	80630000 	lb	v1,0(v1)
ffffffffa0803a9c:	a0430000 	sb	v1,0(v0)
ffffffffa0803aa0:	8fc20000 	lw	v0,0(s8)
ffffffffa0803aa4:	24420001 	addiu	v0,v0,1
ffffffffa0803aa8:	afc20000 	sw	v0,0(s8)
ffffffffa0803aac:	8fc30000 	lw	v1,0(s8)
ffffffffa0803ab0:	8fc20004 	lw	v0,4(s8)
ffffffffa0803ab4:	0062102a 	slt	v0,v1,v0
ffffffffa0803ab8:	1440fff1 	bnez	v0,ffffffffa0803a80 <strcpy+0x34>
ffffffffa0803abc:	00000000 	nop
ffffffffa0803ac0:	8fc20000 	lw	v0,0(s8)
ffffffffa0803ac4:	dfc30010 	ld	v1,16(s8)
ffffffffa0803ac8:	0062102d 	daddu	v0,v1,v0
ffffffffa0803acc:	a0400000 	sb	zero,0(v0)
ffffffffa0803ad0:	03c0e82d 	move	sp,s8
ffffffffa0803ad4:	dfbf0028 	ld	ra,40(sp)
ffffffffa0803ad8:	dfbe0020 	ld	s8,32(sp)
ffffffffa0803adc:	67bd0030 	daddiu	sp,sp,48
ffffffffa0803ae0:	03e00008 	jr	ra
ffffffffa0803ae4:	00000000 	nop
	...

ffffffffa0803af0 <mini_strlen>:
ffffffffa0803af0:	67bdffd0 	daddiu	sp,sp,-48
ffffffffa0803af4:	ffbe0028 	sd	s8,40(sp)
ffffffffa0803af8:	03a0f02d 	move	s8,sp
ffffffffa0803afc:	ffc40010 	sd	a0,16(s8)
ffffffffa0803b00:	afc00000 	sw	zero,0(s8)
ffffffffa0803b04:	08200ec6 	j	ffffffffa0803b18 <mini_strlen+0x28>
ffffffffa0803b08:	00000000 	nop
ffffffffa0803b0c:	8fc20000 	lw	v0,0(s8)
ffffffffa0803b10:	24420001 	addiu	v0,v0,1
ffffffffa0803b14:	afc20000 	sw	v0,0(s8)
ffffffffa0803b18:	9fc20000 	lwu	v0,0(s8)
ffffffffa0803b1c:	dfc30010 	ld	v1,16(s8)
ffffffffa0803b20:	0062102d 	daddu	v0,v1,v0
ffffffffa0803b24:	80420000 	lb	v0,0(v0)
ffffffffa0803b28:	1440fff8 	bnez	v0,ffffffffa0803b0c <mini_strlen+0x1c>
ffffffffa0803b2c:	00000000 	nop
ffffffffa0803b30:	8fc20000 	lw	v0,0(s8)
ffffffffa0803b34:	03c0e82d 	move	sp,s8
ffffffffa0803b38:	dfbe0028 	ld	s8,40(sp)
ffffffffa0803b3c:	67bd0030 	daddiu	sp,sp,48
ffffffffa0803b40:	03e00008 	jr	ra
ffffffffa0803b44:	00000000 	nop

ffffffffa0803b48 <mini_itoa>:
ffffffffa0803b48:	67bdffb0 	daddiu	sp,sp,-80
ffffffffa0803b4c:	ffbe0048 	sd	s8,72(sp)
ffffffffa0803b50:	03a0f02d 	move	s8,sp
ffffffffa0803b54:	0080502d 	move	a6,a0
ffffffffa0803b58:	00c0202d 	move	a0,a2
ffffffffa0803b5c:	00e0182d 	move	v1,a3
ffffffffa0803b60:	ffc80030 	sd	a4,48(s8)
ffffffffa0803b64:	0120102d 	move	v0,a5
ffffffffa0803b68:	000a3000 	sll	a2,a6,0x0
ffffffffa0803b6c:	afc60020 	sw	a2,32(s8)
ffffffffa0803b70:	00052800 	sll	a1,a1,0x0
ffffffffa0803b74:	afc50024 	sw	a1,36(s8)
ffffffffa0803b78:	00042000 	sll	a0,a0,0x0
ffffffffa0803b7c:	afc40028 	sw	a0,40(s8)
ffffffffa0803b80:	00031800 	sll	v1,v1,0x0
ffffffffa0803b84:	afc3002c 	sw	v1,44(s8)
ffffffffa0803b88:	00021000 	sll	v0,v0,0x0
ffffffffa0803b8c:	afc20038 	sw	v0,56(s8)
ffffffffa0803b90:	dfc20030 	ld	v0,48(s8)
ffffffffa0803b94:	ffc20000 	sd	v0,0(s8)
ffffffffa0803b98:	afc00008 	sw	zero,8(s8)
ffffffffa0803b9c:	8fc20024 	lw	v0,36(s8)
ffffffffa0803ba0:	2c420011 	sltiu	v0,v0,17
ffffffffa0803ba4:	14400004 	bnez	v0,ffffffffa0803bb8 <mini_itoa+0x70>
ffffffffa0803ba8:	00000000 	nop
ffffffffa0803bac:	0000102d 	move	v0,zero
ffffffffa0803bb0:	08200f73 	j	ffffffffa0803dcc <mini_itoa+0x284>
ffffffffa0803bb4:	00000000 	nop
ffffffffa0803bb8:	8fc20020 	lw	v0,32(s8)
ffffffffa0803bbc:	04410009 	bgez	v0,ffffffffa0803be4 <mini_itoa+0x9c>
ffffffffa0803bc0:	00000000 	nop
ffffffffa0803bc4:	8fc2002c 	lw	v0,44(s8)
ffffffffa0803bc8:	14400006 	bnez	v0,ffffffffa0803be4 <mini_itoa+0x9c>
ffffffffa0803bcc:	00000000 	nop
ffffffffa0803bd0:	24020001 	li	v0,1
ffffffffa0803bd4:	afc20008 	sw	v0,8(s8)
ffffffffa0803bd8:	8fc20020 	lw	v0,32(s8)
ffffffffa0803bdc:	00021023 	negu	v0,v0
ffffffffa0803be0:	afc20020 	sw	v0,32(s8)
ffffffffa0803be4:	8fc20020 	lw	v0,32(s8)
ffffffffa0803be8:	0040182d 	move	v1,v0
ffffffffa0803bec:	8fc20024 	lw	v0,36(s8)
ffffffffa0803bf0:	0062001b 	divu	zero,v1,v0
ffffffffa0803bf4:	004001f4 	teq	v0,zero,0x7
ffffffffa0803bf8:	00001010 	mfhi	v0
ffffffffa0803bfc:	afc20010 	sw	v0,16(s8)
ffffffffa0803c00:	dfc20000 	ld	v0,0(s8)
ffffffffa0803c04:	64430001 	daddiu	v1,v0,1
ffffffffa0803c08:	ffc30000 	sd	v1,0(s8)
ffffffffa0803c0c:	8fc30010 	lw	v1,16(s8)
ffffffffa0803c10:	2863000a 	slti	v1,v1,10
ffffffffa0803c14:	10600009 	beqz	v1,ffffffffa0803c3c <mini_itoa+0xf4>
ffffffffa0803c18:	00000000 	nop
ffffffffa0803c1c:	8fc30010 	lw	v1,16(s8)
ffffffffa0803c20:	306300ff 	andi	v1,v1,0xff
ffffffffa0803c24:	24630030 	addiu	v1,v1,48
ffffffffa0803c28:	306300ff 	andi	v1,v1,0xff
ffffffffa0803c2c:	00031e3c 	dsll32	v1,v1,0x18
ffffffffa0803c30:	00031e3f 	dsra32	v1,v1,0x18
ffffffffa0803c34:	08200f1e 	j	ffffffffa0803c78 <mini_itoa+0x130>
ffffffffa0803c38:	00000000 	nop
ffffffffa0803c3c:	8fc30028 	lw	v1,40(s8)
ffffffffa0803c40:	10600004 	beqz	v1,ffffffffa0803c54 <mini_itoa+0x10c>
ffffffffa0803c44:	00000000 	nop
ffffffffa0803c48:	24030041 	li	v1,65
ffffffffa0803c4c:	08200f16 	j	ffffffffa0803c58 <mini_itoa+0x110>
ffffffffa0803c50:	00000000 	nop
ffffffffa0803c54:	24030061 	li	v1,97
ffffffffa0803c58:	8fc40010 	lw	a0,16(s8)
ffffffffa0803c5c:	308400ff 	andi	a0,a0,0xff
ffffffffa0803c60:	00641821 	addu	v1,v1,a0
ffffffffa0803c64:	306300ff 	andi	v1,v1,0xff
ffffffffa0803c68:	2463fff6 	addiu	v1,v1,-10
ffffffffa0803c6c:	306300ff 	andi	v1,v1,0xff
ffffffffa0803c70:	00031e3c 	dsll32	v1,v1,0x18
ffffffffa0803c74:	00031e3f 	dsra32	v1,v1,0x18
ffffffffa0803c78:	a0430000 	sb	v1,0(v0)
ffffffffa0803c7c:	8fc30020 	lw	v1,32(s8)
ffffffffa0803c80:	8fc20024 	lw	v0,36(s8)
ffffffffa0803c84:	0062001b 	divu	zero,v1,v0
ffffffffa0803c88:	004001f4 	teq	v0,zero,0x7
ffffffffa0803c8c:	00001810 	mfhi	v1
ffffffffa0803c90:	00001012 	mflo	v0
ffffffffa0803c94:	afc20020 	sw	v0,32(s8)
ffffffffa0803c98:	8fc20020 	lw	v0,32(s8)
ffffffffa0803c9c:	1c40ffd1 	bgtz	v0,ffffffffa0803be4 <mini_itoa+0x9c>
ffffffffa0803ca0:	00000000 	nop
ffffffffa0803ca4:	dfc30000 	ld	v1,0(s8)
ffffffffa0803ca8:	dfc20030 	ld	v0,48(s8)
ffffffffa0803cac:	0062102f 	dsubu	v0,v1,v0
ffffffffa0803cb0:	afc2000c 	sw	v0,12(s8)
ffffffffa0803cb4:	08200f37 	j	ffffffffa0803cdc <mini_itoa+0x194>
ffffffffa0803cb8:	00000000 	nop
ffffffffa0803cbc:	dfc20000 	ld	v0,0(s8)
ffffffffa0803cc0:	64430001 	daddiu	v1,v0,1
ffffffffa0803cc4:	ffc30000 	sd	v1,0(s8)
ffffffffa0803cc8:	24030030 	li	v1,48
ffffffffa0803ccc:	a0430000 	sb	v1,0(v0)
ffffffffa0803cd0:	8fc2000c 	lw	v0,12(s8)
ffffffffa0803cd4:	24420001 	addiu	v0,v0,1
ffffffffa0803cd8:	afc2000c 	sw	v0,12(s8)
ffffffffa0803cdc:	8fc3000c 	lw	v1,12(s8)
ffffffffa0803ce0:	8fc20038 	lw	v0,56(s8)
ffffffffa0803ce4:	0062102b 	sltu	v0,v1,v0
ffffffffa0803ce8:	1440fff4 	bnez	v0,ffffffffa0803cbc <mini_itoa+0x174>
ffffffffa0803cec:	00000000 	nop
ffffffffa0803cf0:	8fc20008 	lw	v0,8(s8)
ffffffffa0803cf4:	10400006 	beqz	v0,ffffffffa0803d10 <mini_itoa+0x1c8>
ffffffffa0803cf8:	00000000 	nop
ffffffffa0803cfc:	dfc20000 	ld	v0,0(s8)
ffffffffa0803d00:	64430001 	daddiu	v1,v0,1
ffffffffa0803d04:	ffc30000 	sd	v1,0(s8)
ffffffffa0803d08:	2403002d 	li	v1,45
ffffffffa0803d0c:	a0430000 	sb	v1,0(v0)
ffffffffa0803d10:	dfc20000 	ld	v0,0(s8)
ffffffffa0803d14:	a0400000 	sb	zero,0(v0)
ffffffffa0803d18:	dfc30000 	ld	v1,0(s8)
ffffffffa0803d1c:	dfc20030 	ld	v0,48(s8)
ffffffffa0803d20:	0062102f 	dsubu	v0,v1,v0
ffffffffa0803d24:	afc20014 	sw	v0,20(s8)
ffffffffa0803d28:	afc0000c 	sw	zero,12(s8)
ffffffffa0803d2c:	08200f6c 	j	ffffffffa0803db0 <mini_itoa+0x268>
ffffffffa0803d30:	00000000 	nop
ffffffffa0803d34:	9fc2000c 	lwu	v0,12(s8)
ffffffffa0803d38:	dfc30030 	ld	v1,48(s8)
ffffffffa0803d3c:	0062102d 	daddu	v0,v1,v0
ffffffffa0803d40:	90420000 	lbu	v0,0(v0)
ffffffffa0803d44:	a3c20018 	sb	v0,24(s8)
ffffffffa0803d48:	9fc2000c 	lwu	v0,12(s8)
ffffffffa0803d4c:	dfc30030 	ld	v1,48(s8)
ffffffffa0803d50:	0062102d 	daddu	v0,v1,v0
ffffffffa0803d54:	8fc40014 	lw	a0,20(s8)
ffffffffa0803d58:	8fc3000c 	lw	v1,12(s8)
ffffffffa0803d5c:	00831823 	subu	v1,a0,v1
ffffffffa0803d60:	2463ffff 	addiu	v1,v1,-1
ffffffffa0803d64:	0003183c 	dsll32	v1,v1,0x0
ffffffffa0803d68:	0003183e 	dsrl32	v1,v1,0x0
ffffffffa0803d6c:	dfc40030 	ld	a0,48(s8)
ffffffffa0803d70:	0083182d 	daddu	v1,a0,v1
ffffffffa0803d74:	80630000 	lb	v1,0(v1)
ffffffffa0803d78:	a0430000 	sb	v1,0(v0)
ffffffffa0803d7c:	8fc30014 	lw	v1,20(s8)
ffffffffa0803d80:	8fc2000c 	lw	v0,12(s8)
ffffffffa0803d84:	00621023 	subu	v0,v1,v0
ffffffffa0803d88:	2442ffff 	addiu	v0,v0,-1
ffffffffa0803d8c:	0002103c 	dsll32	v0,v0,0x0
ffffffffa0803d90:	0002103e 	dsrl32	v0,v0,0x0
ffffffffa0803d94:	dfc30030 	ld	v1,48(s8)
ffffffffa0803d98:	0062102d 	daddu	v0,v1,v0
ffffffffa0803d9c:	93c30018 	lbu	v1,24(s8)
ffffffffa0803da0:	a0430000 	sb	v1,0(v0)
ffffffffa0803da4:	8fc2000c 	lw	v0,12(s8)
ffffffffa0803da8:	24420001 	addiu	v0,v0,1
ffffffffa0803dac:	afc2000c 	sw	v0,12(s8)
ffffffffa0803db0:	8fc20014 	lw	v0,20(s8)
ffffffffa0803db4:	00021042 	srl	v0,v0,0x1
ffffffffa0803db8:	8fc3000c 	lw	v1,12(s8)
ffffffffa0803dbc:	0062102b 	sltu	v0,v1,v0
ffffffffa0803dc0:	1440ffdc 	bnez	v0,ffffffffa0803d34 <mini_itoa+0x1ec>
ffffffffa0803dc4:	00000000 	nop
ffffffffa0803dc8:	8fc20014 	lw	v0,20(s8)
ffffffffa0803dcc:	03c0e82d 	move	sp,s8
ffffffffa0803dd0:	dfbe0048 	ld	s8,72(sp)
ffffffffa0803dd4:	67bd0050 	daddiu	sp,sp,80
ffffffffa0803dd8:	03e00008 	jr	ra
ffffffffa0803ddc:	00000000 	nop

ffffffffa0803de0 <_putc>:
ffffffffa0803de0:	67bdffe0 	daddiu	sp,sp,-32
ffffffffa0803de4:	ffbe0018 	sd	s8,24(sp)
ffffffffa0803de8:	03a0f02d 	move	s8,sp
ffffffffa0803dec:	0080102d 	move	v0,a0
ffffffffa0803df0:	ffc50008 	sd	a1,8(s8)
ffffffffa0803df4:	00021000 	sll	v0,v0,0x0
ffffffffa0803df8:	afc20000 	sw	v0,0(s8)
ffffffffa0803dfc:	dfc20008 	ld	v0,8(s8)
ffffffffa0803e00:	dc420008 	ld	v0,8(v0)
ffffffffa0803e04:	0040182d 	move	v1,v0
ffffffffa0803e08:	dfc20008 	ld	v0,8(s8)
ffffffffa0803e0c:	dc420000 	ld	v0,0(v0)
ffffffffa0803e10:	0062102f 	dsubu	v0,v1,v0
ffffffffa0803e14:	00021000 	sll	v0,v0,0x0
ffffffffa0803e18:	24420001 	addiu	v0,v0,1
ffffffffa0803e1c:	0040182d 	move	v1,v0
ffffffffa0803e20:	dfc20008 	ld	v0,8(s8)
ffffffffa0803e24:	8c420010 	lw	v0,16(v0)
ffffffffa0803e28:	0062102b 	sltu	v0,v1,v0
ffffffffa0803e2c:	14400004 	bnez	v0,ffffffffa0803e40 <_putc+0x60>
ffffffffa0803e30:	00000000 	nop
ffffffffa0803e34:	0000102d 	move	v0,zero
ffffffffa0803e38:	08200f9d 	j	ffffffffa0803e74 <_putc+0x94>
ffffffffa0803e3c:	00000000 	nop
ffffffffa0803e40:	dfc20008 	ld	v0,8(s8)
ffffffffa0803e44:	dc420008 	ld	v0,8(v0)
ffffffffa0803e48:	64440001 	daddiu	a0,v0,1
ffffffffa0803e4c:	dfc30008 	ld	v1,8(s8)
ffffffffa0803e50:	fc640008 	sd	a0,8(v1)
ffffffffa0803e54:	8fc30000 	lw	v1,0(s8)
ffffffffa0803e58:	00031e3c 	dsll32	v1,v1,0x18
ffffffffa0803e5c:	00031e3f 	dsra32	v1,v1,0x18
ffffffffa0803e60:	a0430000 	sb	v1,0(v0)
ffffffffa0803e64:	dfc20008 	ld	v0,8(s8)
ffffffffa0803e68:	dc420008 	ld	v0,8(v0)
ffffffffa0803e6c:	a0400000 	sb	zero,0(v0)
ffffffffa0803e70:	24020001 	li	v0,1
ffffffffa0803e74:	03c0e82d 	move	sp,s8
ffffffffa0803e78:	dfbe0018 	ld	s8,24(sp)
ffffffffa0803e7c:	67bd0020 	daddiu	sp,sp,32
ffffffffa0803e80:	03e00008 	jr	ra
ffffffffa0803e84:	00000000 	nop

ffffffffa0803e88 <_puts>:
ffffffffa0803e88:	67bdffc0 	daddiu	sp,sp,-64
ffffffffa0803e8c:	ffbe0038 	sd	s8,56(sp)
ffffffffa0803e90:	03a0f02d 	move	s8,sp
ffffffffa0803e94:	ffc40010 	sd	a0,16(s8)
ffffffffa0803e98:	00a0102d 	move	v0,a1
ffffffffa0803e9c:	ffc60020 	sd	a2,32(s8)
ffffffffa0803ea0:	00021000 	sll	v0,v0,0x0
ffffffffa0803ea4:	afc20018 	sw	v0,24(s8)
ffffffffa0803ea8:	dfc20020 	ld	v0,32(s8)
ffffffffa0803eac:	8c420010 	lw	v0,16(v0)
ffffffffa0803eb0:	0002183c 	dsll32	v1,v0,0x0
ffffffffa0803eb4:	0003183e 	dsrl32	v1,v1,0x0
ffffffffa0803eb8:	dfc20020 	ld	v0,32(s8)
ffffffffa0803ebc:	dc420000 	ld	v0,0(v0)
ffffffffa0803ec0:	0040202d 	move	a0,v0
ffffffffa0803ec4:	dfc20020 	ld	v0,32(s8)
ffffffffa0803ec8:	dc420008 	ld	v0,8(v0)
ffffffffa0803ecc:	0082102f 	dsubu	v0,a0,v0
ffffffffa0803ed0:	0062102d 	daddu	v0,v1,v0
ffffffffa0803ed4:	6443ffff 	daddiu	v1,v0,-1
ffffffffa0803ed8:	9fc20018 	lwu	v0,24(s8)
ffffffffa0803edc:	0062102a 	slt	v0,v1,v0
ffffffffa0803ee0:	1040000e 	beqz	v0,ffffffffa0803f1c <_puts+0x94>
ffffffffa0803ee4:	00000000 	nop
ffffffffa0803ee8:	dfc20020 	ld	v0,32(s8)
ffffffffa0803eec:	8c420010 	lw	v0,16(v0)
ffffffffa0803ef0:	0002183c 	dsll32	v1,v0,0x0
ffffffffa0803ef4:	0003183e 	dsrl32	v1,v1,0x0
ffffffffa0803ef8:	dfc20020 	ld	v0,32(s8)
ffffffffa0803efc:	dc420000 	ld	v0,0(v0)
ffffffffa0803f00:	0040202d 	move	a0,v0
ffffffffa0803f04:	dfc20020 	ld	v0,32(s8)
ffffffffa0803f08:	dc420008 	ld	v0,8(v0)
ffffffffa0803f0c:	0082102f 	dsubu	v0,a0,v0
ffffffffa0803f10:	0062102d 	daddu	v0,v1,v0
ffffffffa0803f14:	6442ffff 	daddiu	v0,v0,-1
ffffffffa0803f18:	afc20018 	sw	v0,24(s8)
ffffffffa0803f1c:	afc00000 	sw	zero,0(s8)
ffffffffa0803f20:	08200fd7 	j	ffffffffa0803f5c <_puts+0xd4>
ffffffffa0803f24:	00000000 	nop
ffffffffa0803f28:	dfc20020 	ld	v0,32(s8)
ffffffffa0803f2c:	dc420008 	ld	v0,8(v0)
ffffffffa0803f30:	64440001 	daddiu	a0,v0,1
ffffffffa0803f34:	dfc30020 	ld	v1,32(s8)
ffffffffa0803f38:	fc640008 	sd	a0,8(v1)
ffffffffa0803f3c:	9fc30000 	lwu	v1,0(s8)
ffffffffa0803f40:	dfc40010 	ld	a0,16(s8)
ffffffffa0803f44:	0083182d 	daddu	v1,a0,v1
ffffffffa0803f48:	80630000 	lb	v1,0(v1)
ffffffffa0803f4c:	a0430000 	sb	v1,0(v0)
ffffffffa0803f50:	8fc20000 	lw	v0,0(s8)
ffffffffa0803f54:	24420001 	addiu	v0,v0,1
ffffffffa0803f58:	afc20000 	sw	v0,0(s8)
ffffffffa0803f5c:	8fc30000 	lw	v1,0(s8)
ffffffffa0803f60:	8fc20018 	lw	v0,24(s8)
ffffffffa0803f64:	0062102b 	sltu	v0,v1,v0
ffffffffa0803f68:	1440ffef 	bnez	v0,ffffffffa0803f28 <_puts+0xa0>
ffffffffa0803f6c:	00000000 	nop
ffffffffa0803f70:	dfc20020 	ld	v0,32(s8)
ffffffffa0803f74:	dc420008 	ld	v0,8(v0)
ffffffffa0803f78:	a0400000 	sb	zero,0(v0)
ffffffffa0803f7c:	8fc20018 	lw	v0,24(s8)
ffffffffa0803f80:	03c0e82d 	move	sp,s8
ffffffffa0803f84:	dfbe0038 	ld	s8,56(sp)
ffffffffa0803f88:	67bd0040 	daddiu	sp,sp,64
ffffffffa0803f8c:	03e00008 	jr	ra
ffffffffa0803f90:	00000000 	nop

ffffffffa0803f94 <mini_vsnprintf>:
ffffffffa0803f94:	67bdff90 	daddiu	sp,sp,-112
ffffffffa0803f98:	ffbf0068 	sd	ra,104(sp)
ffffffffa0803f9c:	ffbe0060 	sd	s8,96(sp)
ffffffffa0803fa0:	03a0f02d 	move	s8,sp
ffffffffa0803fa4:	ffc40040 	sd	a0,64(s8)
ffffffffa0803fa8:	00a0102d 	move	v0,a1
ffffffffa0803fac:	ffc60050 	sd	a2,80(s8)
ffffffffa0803fb0:	ffc70058 	sd	a3,88(s8)
ffffffffa0803fb4:	00021000 	sll	v0,v0,0x0
ffffffffa0803fb8:	afc20048 	sw	v0,72(s8)
ffffffffa0803fbc:	dfc20040 	ld	v0,64(s8)
ffffffffa0803fc0:	ffc20010 	sd	v0,16(s8)
ffffffffa0803fc4:	dfc20040 	ld	v0,64(s8)
ffffffffa0803fc8:	ffc20018 	sd	v0,24(s8)
ffffffffa0803fcc:	8fc20048 	lw	v0,72(s8)
ffffffffa0803fd0:	afc20020 	sw	v0,32(s8)
ffffffffa0803fd4:	082010b1 	j	ffffffffa08042c4 <mini_vsnprintf+0x330>
ffffffffa0803fd8:	00000000 	nop
ffffffffa0803fdc:	dfc20018 	ld	v0,24(s8)
ffffffffa0803fe0:	0040182d 	move	v1,v0
ffffffffa0803fe4:	dfc20010 	ld	v0,16(s8)
ffffffffa0803fe8:	0062102f 	dsubu	v0,v1,v0
ffffffffa0803fec:	00021000 	sll	v0,v0,0x0
ffffffffa0803ff0:	24420001 	addiu	v0,v0,1
ffffffffa0803ff4:	0040182d 	move	v1,v0
ffffffffa0803ff8:	8fc20020 	lw	v0,32(s8)
ffffffffa0803ffc:	0062102b 	sltu	v0,v1,v0
ffffffffa0804000:	14400003 	bnez	v0,ffffffffa0804010 <mini_vsnprintf+0x7c>
ffffffffa0804004:	00000000 	nop
ffffffffa0804008:	082010bc 	j	ffffffffa08042f0 <mini_vsnprintf+0x35c>
ffffffffa080400c:	00000000 	nop
ffffffffa0804010:	83c30000 	lb	v1,0(s8)
ffffffffa0804014:	24020025 	li	v0,37
ffffffffa0804018:	1062000a 	beq	v1,v0,ffffffffa0804044 <mini_vsnprintf+0xb0>
ffffffffa080401c:	00000000 	nop
ffffffffa0804020:	83c20000 	lb	v0,0(s8)
ffffffffa0804024:	0040182d 	move	v1,v0
ffffffffa0804028:	67c20010 	daddiu	v0,s8,16
ffffffffa080402c:	0060202d 	move	a0,v1
ffffffffa0804030:	0040282d 	move	a1,v0
ffffffffa0804034:	0c200f78 	jal	ffffffffa0803de0 <_putc>
ffffffffa0804038:	00000000 	nop
ffffffffa080403c:	082010b1 	j	ffffffffa08042c4 <mini_vsnprintf+0x330>
ffffffffa0804040:	00000000 	nop
ffffffffa0804044:	a3c00001 	sb	zero,1(s8)
ffffffffa0804048:	dfc20050 	ld	v0,80(s8)
ffffffffa080404c:	64430001 	daddiu	v1,v0,1
ffffffffa0804050:	ffc30050 	sd	v1,80(s8)
ffffffffa0804054:	90420000 	lbu	v0,0(v0)
ffffffffa0804058:	a3c20000 	sb	v0,0(s8)
ffffffffa080405c:	83c30000 	lb	v1,0(s8)
ffffffffa0804060:	24020030 	li	v0,48
ffffffffa0804064:	1462001c 	bne	v1,v0,ffffffffa08040d8 <mini_vsnprintf+0x144>
ffffffffa0804068:	00000000 	nop
ffffffffa080406c:	dfc20050 	ld	v0,80(s8)
ffffffffa0804070:	64430001 	daddiu	v1,v0,1
ffffffffa0804074:	ffc30050 	sd	v1,80(s8)
ffffffffa0804078:	90420000 	lbu	v0,0(v0)
ffffffffa080407c:	a3c20000 	sb	v0,0(s8)
ffffffffa0804080:	83c20000 	lb	v0,0(s8)
ffffffffa0804084:	14400003 	bnez	v0,ffffffffa0804094 <mini_vsnprintf+0x100>
ffffffffa0804088:	00000000 	nop
ffffffffa080408c:	082010bc 	j	ffffffffa08042f0 <mini_vsnprintf+0x35c>
ffffffffa0804090:	00000000 	nop
ffffffffa0804094:	83c20000 	lb	v0,0(s8)
ffffffffa0804098:	28420030 	slti	v0,v0,48
ffffffffa080409c:	14400009 	bnez	v0,ffffffffa08040c4 <mini_vsnprintf+0x130>
ffffffffa08040a0:	00000000 	nop
ffffffffa08040a4:	83c20000 	lb	v0,0(s8)
ffffffffa08040a8:	2842003a 	slti	v0,v0,58
ffffffffa08040ac:	10400005 	beqz	v0,ffffffffa08040c4 <mini_vsnprintf+0x130>
ffffffffa08040b0:	00000000 	nop
ffffffffa08040b4:	93c20000 	lbu	v0,0(s8)
ffffffffa08040b8:	2442ffd0 	addiu	v0,v0,-48
ffffffffa08040bc:	304200ff 	andi	v0,v0,0xff
ffffffffa08040c0:	a3c20001 	sb	v0,1(s8)
ffffffffa08040c4:	dfc20050 	ld	v0,80(s8)
ffffffffa08040c8:	64430001 	daddiu	v1,v0,1
ffffffffa08040cc:	ffc30050 	sd	v1,80(s8)
ffffffffa08040d0:	90420000 	lbu	v0,0(v0)
ffffffffa08040d4:	a3c20000 	sb	v0,0(s8)
ffffffffa08040d8:	83c20000 	lb	v0,0(s8)
ffffffffa08040dc:	24030064 	li	v1,100
ffffffffa08040e0:	10430019 	beq	v0,v1,ffffffffa0804148 <mini_vsnprintf+0x1b4>
ffffffffa08040e4:	00000000 	nop
ffffffffa08040e8:	28430065 	slti	v1,v0,101
ffffffffa08040ec:	1060000b 	beqz	v1,ffffffffa080411c <mini_vsnprintf+0x188>
ffffffffa08040f0:	00000000 	nop
ffffffffa08040f4:	24030058 	li	v1,88
ffffffffa08040f8:	1043002f 	beq	v0,v1,ffffffffa08041b8 <mini_vsnprintf+0x224>
ffffffffa08040fc:	00000000 	nop
ffffffffa0804100:	24030063 	li	v1,99
ffffffffa0804104:	10430048 	beq	v0,v1,ffffffffa0804228 <mini_vsnprintf+0x294>
ffffffffa0804108:	00000000 	nop
ffffffffa080410c:	10400077 	beqz	v0,ffffffffa08042ec <mini_vsnprintf+0x358>
ffffffffa0804110:	00000000 	nop
ffffffffa0804114:	082010a9 	j	ffffffffa08042a4 <mini_vsnprintf+0x310>
ffffffffa0804118:	00000000 	nop
ffffffffa080411c:	24030075 	li	v1,117
ffffffffa0804120:	10430009 	beq	v0,v1,ffffffffa0804148 <mini_vsnprintf+0x1b4>
ffffffffa0804124:	00000000 	nop
ffffffffa0804128:	24030078 	li	v1,120
ffffffffa080412c:	10430022 	beq	v0,v1,ffffffffa08041b8 <mini_vsnprintf+0x224>
ffffffffa0804130:	00000000 	nop
ffffffffa0804134:	24030073 	li	v1,115
ffffffffa0804138:	10430049 	beq	v0,v1,ffffffffa0804260 <mini_vsnprintf+0x2cc>
ffffffffa080413c:	00000000 	nop
ffffffffa0804140:	082010a9 	j	ffffffffa08042a4 <mini_vsnprintf+0x310>
ffffffffa0804144:	00000000 	nop
ffffffffa0804148:	dfc20058 	ld	v0,88(s8)
ffffffffa080414c:	64430008 	daddiu	v1,v0,8
ffffffffa0804150:	ffc30058 	sd	v1,88(s8)
ffffffffa0804154:	8c420000 	lw	v0,0(v0)
ffffffffa0804158:	0040202d 	move	a0,v0
ffffffffa080415c:	83c20000 	lb	v0,0(s8)
ffffffffa0804160:	38420075 	xori	v0,v0,0x75
ffffffffa0804164:	2c420001 	sltiu	v0,v0,1
ffffffffa0804168:	304200ff 	andi	v0,v0,0xff
ffffffffa080416c:	0040382d 	move	a3,v0
ffffffffa0804170:	83c20001 	lb	v0,1(s8)
ffffffffa0804174:	67c30028 	daddiu	v1,s8,40
ffffffffa0804178:	2405000a 	li	a1,10
ffffffffa080417c:	0000302d 	move	a2,zero
ffffffffa0804180:	0060402d 	move	a4,v1
ffffffffa0804184:	0040482d 	move	a5,v0
ffffffffa0804188:	0c200ed2 	jal	ffffffffa0803b48 <mini_itoa>
ffffffffa080418c:	00000000 	nop
ffffffffa0804190:	afc20004 	sw	v0,4(s8)
ffffffffa0804194:	67c40028 	daddiu	a0,s8,40
ffffffffa0804198:	8fc30004 	lw	v1,4(s8)
ffffffffa080419c:	67c20010 	daddiu	v0,s8,16
ffffffffa08041a0:	0060282d 	move	a1,v1
ffffffffa08041a4:	0040302d 	move	a2,v0
ffffffffa08041a8:	0c200fa2 	jal	ffffffffa0803e88 <_puts>
ffffffffa08041ac:	00000000 	nop
ffffffffa08041b0:	082010b1 	j	ffffffffa08042c4 <mini_vsnprintf+0x330>
ffffffffa08041b4:	00000000 	nop
ffffffffa08041b8:	dfc20058 	ld	v0,88(s8)
ffffffffa08041bc:	64430008 	daddiu	v1,v0,8
ffffffffa08041c0:	ffc30058 	sd	v1,88(s8)
ffffffffa08041c4:	8c420000 	lw	v0,0(v0)
ffffffffa08041c8:	0040202d 	move	a0,v0
ffffffffa08041cc:	83c20000 	lb	v0,0(s8)
ffffffffa08041d0:	38420058 	xori	v0,v0,0x58
ffffffffa08041d4:	2c420001 	sltiu	v0,v0,1
ffffffffa08041d8:	304200ff 	andi	v0,v0,0xff
ffffffffa08041dc:	0040302d 	move	a2,v0
ffffffffa08041e0:	83c20001 	lb	v0,1(s8)
ffffffffa08041e4:	67c30028 	daddiu	v1,s8,40
ffffffffa08041e8:	24050010 	li	a1,16
ffffffffa08041ec:	24070001 	li	a3,1
ffffffffa08041f0:	0060402d 	move	a4,v1
ffffffffa08041f4:	0040482d 	move	a5,v0
ffffffffa08041f8:	0c200ed2 	jal	ffffffffa0803b48 <mini_itoa>
ffffffffa08041fc:	00000000 	nop
ffffffffa0804200:	afc20004 	sw	v0,4(s8)
ffffffffa0804204:	67c40028 	daddiu	a0,s8,40
ffffffffa0804208:	8fc30004 	lw	v1,4(s8)
ffffffffa080420c:	67c20010 	daddiu	v0,s8,16
ffffffffa0804210:	0060282d 	move	a1,v1
ffffffffa0804214:	0040302d 	move	a2,v0
ffffffffa0804218:	0c200fa2 	jal	ffffffffa0803e88 <_puts>
ffffffffa080421c:	00000000 	nop
ffffffffa0804220:	082010b1 	j	ffffffffa08042c4 <mini_vsnprintf+0x330>
ffffffffa0804224:	00000000 	nop
ffffffffa0804228:	dfc20058 	ld	v0,88(s8)
ffffffffa080422c:	64430008 	daddiu	v1,v0,8
ffffffffa0804230:	ffc30058 	sd	v1,88(s8)
ffffffffa0804234:	8c420000 	lw	v0,0(v0)
ffffffffa0804238:	0002163c 	dsll32	v0,v0,0x18
ffffffffa080423c:	0002163f 	dsra32	v0,v0,0x18
ffffffffa0804240:	0040182d 	move	v1,v0
ffffffffa0804244:	67c20010 	daddiu	v0,s8,16
ffffffffa0804248:	0060202d 	move	a0,v1
ffffffffa080424c:	0040282d 	move	a1,v0
ffffffffa0804250:	0c200f78 	jal	ffffffffa0803de0 <_putc>
ffffffffa0804254:	00000000 	nop
ffffffffa0804258:	082010b1 	j	ffffffffa08042c4 <mini_vsnprintf+0x330>
ffffffffa080425c:	00000000 	nop
ffffffffa0804260:	dfc20058 	ld	v0,88(s8)
ffffffffa0804264:	64430008 	daddiu	v1,v0,8
ffffffffa0804268:	ffc30058 	sd	v1,88(s8)
ffffffffa080426c:	dc420000 	ld	v0,0(v0)
ffffffffa0804270:	ffc20008 	sd	v0,8(s8)
ffffffffa0804274:	dfc40008 	ld	a0,8(s8)
ffffffffa0804278:	0c200ebc 	jal	ffffffffa0803af0 <mini_strlen>
ffffffffa080427c:	00000000 	nop
ffffffffa0804280:	0040182d 	move	v1,v0
ffffffffa0804284:	67c20010 	daddiu	v0,s8,16
ffffffffa0804288:	dfc40008 	ld	a0,8(s8)
ffffffffa080428c:	0060282d 	move	a1,v1
ffffffffa0804290:	0040302d 	move	a2,v0
ffffffffa0804294:	0c200fa2 	jal	ffffffffa0803e88 <_puts>
ffffffffa0804298:	00000000 	nop
ffffffffa080429c:	082010b1 	j	ffffffffa08042c4 <mini_vsnprintf+0x330>
ffffffffa08042a0:	00000000 	nop
ffffffffa08042a4:	83c20000 	lb	v0,0(s8)
ffffffffa08042a8:	0040182d 	move	v1,v0
ffffffffa08042ac:	67c20010 	daddiu	v0,s8,16
ffffffffa08042b0:	0060202d 	move	a0,v1
ffffffffa08042b4:	0040282d 	move	a1,v0
ffffffffa08042b8:	0c200f78 	jal	ffffffffa0803de0 <_putc>
ffffffffa08042bc:	00000000 	nop
ffffffffa08042c0:	00000000 	nop
ffffffffa08042c4:	dfc20050 	ld	v0,80(s8)
ffffffffa08042c8:	64430001 	daddiu	v1,v0,1
ffffffffa08042cc:	ffc30050 	sd	v1,80(s8)
ffffffffa08042d0:	90420000 	lbu	v0,0(v0)
ffffffffa08042d4:	a3c20000 	sb	v0,0(s8)
ffffffffa08042d8:	83c20000 	lb	v0,0(s8)
ffffffffa08042dc:	1440ff3f 	bnez	v0,ffffffffa0803fdc <mini_vsnprintf+0x48>
ffffffffa08042e0:	00000000 	nop
ffffffffa08042e4:	082010bc 	j	ffffffffa08042f0 <mini_vsnprintf+0x35c>
ffffffffa08042e8:	00000000 	nop
ffffffffa08042ec:	00000000 	nop
ffffffffa08042f0:	dfc20018 	ld	v0,24(s8)
ffffffffa08042f4:	0040182d 	move	v1,v0
ffffffffa08042f8:	dfc20010 	ld	v0,16(s8)
ffffffffa08042fc:	0062102f 	dsubu	v0,v1,v0
ffffffffa0804300:	00021000 	sll	v0,v0,0x0
ffffffffa0804304:	03c0e82d 	move	sp,s8
ffffffffa0804308:	dfbf0068 	ld	ra,104(sp)
ffffffffa080430c:	dfbe0060 	ld	s8,96(sp)
ffffffffa0804310:	67bd0070 	daddiu	sp,sp,112
ffffffffa0804314:	03e00008 	jr	ra
ffffffffa0804318:	00000000 	nop

ffffffffa080431c <printk>:
ffffffffa080431c:	67bdfe90 	daddiu	sp,sp,-368
ffffffffa0804320:	ffbf0128 	sd	ra,296(sp)
ffffffffa0804324:	ffbe0120 	sd	s8,288(sp)
ffffffffa0804328:	03a0f02d 	move	s8,sp
ffffffffa080432c:	ffc50138 	sd	a1,312(s8)
ffffffffa0804330:	ffc60140 	sd	a2,320(s8)
ffffffffa0804334:	ffc70148 	sd	a3,328(s8)
ffffffffa0804338:	ffc80150 	sd	a4,336(s8)
ffffffffa080433c:	ffc90158 	sd	a5,344(s8)
ffffffffa0804340:	ffca0160 	sd	a6,352(s8)
ffffffffa0804344:	ffcb0168 	sd	a7,360(s8)
ffffffffa0804348:	ffc40110 	sd	a0,272(s8)
ffffffffa080434c:	67c20170 	daddiu	v0,s8,368
ffffffffa0804350:	6442ffc8 	daddiu	v0,v0,-56
ffffffffa0804354:	ffc20008 	sd	v0,8(s8)
ffffffffa0804358:	dfc20008 	ld	v0,8(s8)
ffffffffa080435c:	67c30010 	daddiu	v1,s8,16
ffffffffa0804360:	0060202d 	move	a0,v1
ffffffffa0804364:	24050100 	li	a1,256
ffffffffa0804368:	dfc60110 	ld	a2,272(s8)
ffffffffa080436c:	0040382d 	move	a3,v0
ffffffffa0804370:	0c200fe5 	jal	ffffffffa0803f94 <mini_vsnprintf>
ffffffffa0804374:	00000000 	nop
ffffffffa0804378:	afc20000 	sw	v0,0(s8)
ffffffffa080437c:	8fc20000 	lw	v0,0(s8)
ffffffffa0804380:	03c2102d 	daddu	v0,s8,v0
ffffffffa0804384:	a0400010 	sb	zero,16(v0)
ffffffffa0804388:	67c20010 	daddiu	v0,s8,16
ffffffffa080438c:	0040202d 	move	a0,v0
ffffffffa0804390:	0c2000da 	jal	ffffffffa0800368 <port_write>
ffffffffa0804394:	00000000 	nop
ffffffffa0804398:	8fc20000 	lw	v0,0(s8)
ffffffffa080439c:	03c0e82d 	move	sp,s8
ffffffffa08043a0:	dfbf0128 	ld	ra,296(sp)
ffffffffa08043a4:	dfbe0120 	ld	s8,288(sp)
ffffffffa08043a8:	67bd0170 	daddiu	sp,sp,368
ffffffffa08043ac:	03e00008 	jr	ra
ffffffffa08043b0:	00000000 	nop

ffffffffa08043b4 <printf>:
ffffffffa08043b4:	67bdfe90 	daddiu	sp,sp,-368
ffffffffa08043b8:	ffbf0128 	sd	ra,296(sp)
ffffffffa08043bc:	ffbe0120 	sd	s8,288(sp)
ffffffffa08043c0:	03a0f02d 	move	s8,sp
ffffffffa08043c4:	ffc50138 	sd	a1,312(s8)
ffffffffa08043c8:	ffc60140 	sd	a2,320(s8)
ffffffffa08043cc:	ffc70148 	sd	a3,328(s8)
ffffffffa08043d0:	ffc80150 	sd	a4,336(s8)
ffffffffa08043d4:	ffc90158 	sd	a5,344(s8)
ffffffffa08043d8:	ffca0160 	sd	a6,352(s8)
ffffffffa08043dc:	ffcb0168 	sd	a7,360(s8)
ffffffffa08043e0:	ffc40110 	sd	a0,272(s8)
ffffffffa08043e4:	67c20170 	daddiu	v0,s8,368
ffffffffa08043e8:	6442ffc8 	daddiu	v0,v0,-56
ffffffffa08043ec:	ffc20008 	sd	v0,8(s8)
ffffffffa08043f0:	dfc20008 	ld	v0,8(s8)
ffffffffa08043f4:	67c30010 	daddiu	v1,s8,16
ffffffffa08043f8:	0060202d 	move	a0,v1
ffffffffa08043fc:	24050100 	li	a1,256
ffffffffa0804400:	dfc60110 	ld	a2,272(s8)
ffffffffa0804404:	0040382d 	move	a3,v0
ffffffffa0804408:	0c200fe5 	jal	ffffffffa0803f94 <mini_vsnprintf>
ffffffffa080440c:	00000000 	nop
ffffffffa0804410:	afc20000 	sw	v0,0(s8)
ffffffffa0804414:	8fc20000 	lw	v0,0(s8)
ffffffffa0804418:	03c2102d 	daddu	v0,s8,v0
ffffffffa080441c:	a0400010 	sb	zero,16(v0)
ffffffffa0804420:	67c20010 	daddiu	v0,s8,16
ffffffffa0804424:	0040202d 	move	a0,v0
ffffffffa0804428:	0c200c66 	jal	ffffffffa0803198 <sys_write>
ffffffffa080442c:	00000000 	nop
ffffffffa0804430:	8fc20000 	lw	v0,0(s8)
ffffffffa0804434:	03c0e82d 	move	sp,s8
ffffffffa0804438:	dfbf0128 	ld	ra,296(sp)
ffffffffa080443c:	dfbe0120 	ld	s8,288(sp)
ffffffffa0804440:	67bd0170 	daddiu	sp,sp,368
ffffffffa0804444:	03e00008 	jr	ra
ffffffffa0804448:	00000000 	nop

ffffffffa080444c <kprintf>:
ffffffffa080444c:	67bdfe90 	daddiu	sp,sp,-368
ffffffffa0804450:	ffbf0128 	sd	ra,296(sp)
ffffffffa0804454:	ffbe0120 	sd	s8,288(sp)
ffffffffa0804458:	03a0f02d 	move	s8,sp
ffffffffa080445c:	ffc50138 	sd	a1,312(s8)
ffffffffa0804460:	ffc60140 	sd	a2,320(s8)
ffffffffa0804464:	ffc70148 	sd	a3,328(s8)
ffffffffa0804468:	ffc80150 	sd	a4,336(s8)
ffffffffa080446c:	ffc90158 	sd	a5,344(s8)
ffffffffa0804470:	ffca0160 	sd	a6,352(s8)
ffffffffa0804474:	ffcb0168 	sd	a7,360(s8)
ffffffffa0804478:	ffc40110 	sd	a0,272(s8)
ffffffffa080447c:	67c20170 	daddiu	v0,s8,368
ffffffffa0804480:	6442ffc8 	daddiu	v0,v0,-56
ffffffffa0804484:	ffc20008 	sd	v0,8(s8)
ffffffffa0804488:	dfc20008 	ld	v0,8(s8)
ffffffffa080448c:	67c30010 	daddiu	v1,s8,16
ffffffffa0804490:	0060202d 	move	a0,v1
ffffffffa0804494:	24050100 	li	a1,256
ffffffffa0804498:	dfc60110 	ld	a2,272(s8)
ffffffffa080449c:	0040382d 	move	a3,v0
ffffffffa08044a0:	0c200fe5 	jal	ffffffffa0803f94 <mini_vsnprintf>
ffffffffa08044a4:	00000000 	nop
ffffffffa08044a8:	afc20000 	sw	v0,0(s8)
ffffffffa08044ac:	8fc20000 	lw	v0,0(s8)
ffffffffa08044b0:	03c2102d 	daddu	v0,s8,v0
ffffffffa08044b4:	a0400010 	sb	zero,16(v0)
ffffffffa08044b8:	67c20010 	daddiu	v0,s8,16
ffffffffa08044bc:	0040202d 	move	a0,v0
ffffffffa08044c0:	0c200b7f 	jal	ffffffffa0802dfc <screen_write>
ffffffffa08044c4:	00000000 	nop
ffffffffa08044c8:	8fc20000 	lw	v0,0(s8)
ffffffffa08044cc:	03c0e82d 	move	sp,s8
ffffffffa08044d0:	dfbf0128 	ld	ra,296(sp)
ffffffffa08044d4:	dfbe0120 	ld	s8,288(sp)
ffffffffa08044d8:	67bd0170 	daddiu	sp,sp,368
ffffffffa08044dc:	03e00008 	jr	ra
ffffffffa08044e0:	00000000 	nop
	...

ffffffffa08044f0 <printk_task1>:
ffffffffa08044f0:	67bdffe0 	daddiu	sp,sp,-32
ffffffffa08044f4:	ffbf0018 	sd	ra,24(sp)
ffffffffa08044f8:	ffbe0010 	sd	s8,16(sp)
ffffffffa08044fc:	03a0f02d 	move	s8,sp
ffffffffa0804500:	24020001 	li	v0,1
ffffffffa0804504:	afc20004 	sw	v0,4(s8)
ffffffffa0804508:	afc00000 	sw	zero,0(s8)
ffffffffa080450c:	8fc20004 	lw	v0,4(s8)
ffffffffa0804510:	24040001 	li	a0,1
ffffffffa0804514:	0040282d 	move	a1,v0
ffffffffa0804518:	0c20094c 	jal	ffffffffa0802530 <vt100_move_cursor>
ffffffffa080451c:	00000000 	nop
ffffffffa0804520:	8fc30000 	lw	v1,0(s8)
ffffffffa0804524:	3c020000 	lui	v0,0x0
ffffffffa0804528:	64420000 	daddiu	v0,v0,0
ffffffffa080452c:	00021438 	dsll	v0,v0,0x10
ffffffffa0804530:	6442a080 	daddiu	v0,v0,-24448
ffffffffa0804534:	00021438 	dsll	v0,v0,0x10
ffffffffa0804538:	644453f0 	daddiu	a0,v0,21488
ffffffffa080453c:	0060282d 	move	a1,v1
ffffffffa0804540:	0c2010c7 	jal	ffffffffa080431c <printk>
ffffffffa0804544:	00000000 	nop
ffffffffa0804548:	0c20005a 	jal	ffffffffa0800168 <do_scheduler>
ffffffffa080454c:	00000000 	nop
ffffffffa0804550:	8fc20000 	lw	v0,0(s8)
ffffffffa0804554:	24420001 	addiu	v0,v0,1
ffffffffa0804558:	afc20000 	sw	v0,0(s8)
ffffffffa080455c:	08201143 	j	ffffffffa080450c <printk_task1+0x1c>
ffffffffa0804560:	00000000 	nop

ffffffffa0804564 <printk_task2>:
ffffffffa0804564:	67bdffe0 	daddiu	sp,sp,-32
ffffffffa0804568:	ffbf0018 	sd	ra,24(sp)
ffffffffa080456c:	ffbe0010 	sd	s8,16(sp)
ffffffffa0804570:	03a0f02d 	move	s8,sp
ffffffffa0804574:	24020002 	li	v0,2
ffffffffa0804578:	afc20004 	sw	v0,4(s8)
ffffffffa080457c:	afc00000 	sw	zero,0(s8)
ffffffffa0804580:	8fc20004 	lw	v0,4(s8)
ffffffffa0804584:	24040001 	li	a0,1
ffffffffa0804588:	0040282d 	move	a1,v0
ffffffffa080458c:	0c20094c 	jal	ffffffffa0802530 <vt100_move_cursor>
ffffffffa0804590:	00000000 	nop
ffffffffa0804594:	8fc30000 	lw	v1,0(s8)
ffffffffa0804598:	3c020000 	lui	v0,0x0
ffffffffa080459c:	64420000 	daddiu	v0,v0,0
ffffffffa08045a0:	00021438 	dsll	v0,v0,0x10
ffffffffa08045a4:	6442a080 	daddiu	v0,v0,-24448
ffffffffa08045a8:	00021438 	dsll	v0,v0,0x10
ffffffffa08045ac:	644453f0 	daddiu	a0,v0,21488
ffffffffa08045b0:	0060282d 	move	a1,v1
ffffffffa08045b4:	0c2010c7 	jal	ffffffffa080431c <printk>
ffffffffa08045b8:	00000000 	nop
ffffffffa08045bc:	0c20005a 	jal	ffffffffa0800168 <do_scheduler>
ffffffffa08045c0:	00000000 	nop
ffffffffa08045c4:	8fc20000 	lw	v0,0(s8)
ffffffffa08045c8:	24420001 	addiu	v0,v0,1
ffffffffa08045cc:	afc20000 	sw	v0,0(s8)
ffffffffa08045d0:	08201160 	j	ffffffffa0804580 <printk_task2+0x1c>
ffffffffa08045d4:	00000000 	nop

ffffffffa08045d8 <drawing_task1>:
ffffffffa08045d8:	67bdffe0 	daddiu	sp,sp,-32
ffffffffa08045dc:	ffbf0018 	sd	ra,24(sp)
ffffffffa08045e0:	ffbe0010 	sd	s8,16(sp)
ffffffffa08045e4:	03a0f02d 	move	s8,sp
ffffffffa08045e8:	24020016 	li	v0,22
ffffffffa08045ec:	afc20004 	sw	v0,4(s8)
ffffffffa08045f0:	2402003c 	li	v0,60
ffffffffa08045f4:	afc20000 	sw	v0,0(s8)
ffffffffa08045f8:	082011d6 	j	ffffffffa0804758 <drawing_task1+0x180>
ffffffffa08045fc:	00000000 	nop
ffffffffa0804600:	8fc30000 	lw	v1,0(s8)
ffffffffa0804604:	8fc20004 	lw	v0,4(s8)
ffffffffa0804608:	0060202d 	move	a0,v1
ffffffffa080460c:	0040282d 	move	a1,v0
ffffffffa0804610:	0c20094c 	jal	ffffffffa0802530 <vt100_move_cursor>
ffffffffa0804614:	00000000 	nop
ffffffffa0804618:	3c020000 	lui	v0,0x0
ffffffffa080461c:	64420000 	daddiu	v0,v0,0
ffffffffa0804620:	00021438 	dsll	v0,v0,0x10
ffffffffa0804624:	6442a080 	daddiu	v0,v0,-24448
ffffffffa0804628:	00021438 	dsll	v0,v0,0x10
ffffffffa080462c:	64445420 	daddiu	a0,v0,21536
ffffffffa0804630:	3c020000 	lui	v0,0x0
ffffffffa0804634:	64420000 	daddiu	v0,v0,0
ffffffffa0804638:	00021438 	dsll	v0,v0,0x10
ffffffffa080463c:	6442a080 	daddiu	v0,v0,-24448
ffffffffa0804640:	00021438 	dsll	v0,v0,0x10
ffffffffa0804644:	64455ce8 	daddiu	a1,v0,23784
ffffffffa0804648:	0c2010c7 	jal	ffffffffa080431c <printk>
ffffffffa080464c:	00000000 	nop
ffffffffa0804650:	8fc20004 	lw	v0,4(s8)
ffffffffa0804654:	24420001 	addiu	v0,v0,1
ffffffffa0804658:	8fc30000 	lw	v1,0(s8)
ffffffffa080465c:	0060202d 	move	a0,v1
ffffffffa0804660:	0040282d 	move	a1,v0
ffffffffa0804664:	0c20094c 	jal	ffffffffa0802530 <vt100_move_cursor>
ffffffffa0804668:	00000000 	nop
ffffffffa080466c:	3c020000 	lui	v0,0x0
ffffffffa0804670:	64420000 	daddiu	v0,v0,0
ffffffffa0804674:	00021438 	dsll	v0,v0,0x10
ffffffffa0804678:	6442a080 	daddiu	v0,v0,-24448
ffffffffa080467c:	00021438 	dsll	v0,v0,0x10
ffffffffa0804680:	64445420 	daddiu	a0,v0,21536
ffffffffa0804684:	3c020000 	lui	v0,0x0
ffffffffa0804688:	64420000 	daddiu	v0,v0,0
ffffffffa080468c:	00021438 	dsll	v0,v0,0x10
ffffffffa0804690:	6442a080 	daddiu	v0,v0,-24448
ffffffffa0804694:	00021438 	dsll	v0,v0,0x10
ffffffffa0804698:	64455d00 	daddiu	a1,v0,23808
ffffffffa080469c:	0c2010c7 	jal	ffffffffa080431c <printk>
ffffffffa08046a0:	00000000 	nop
ffffffffa08046a4:	8fc20004 	lw	v0,4(s8)
ffffffffa08046a8:	24420002 	addiu	v0,v0,2
ffffffffa08046ac:	8fc30000 	lw	v1,0(s8)
ffffffffa08046b0:	0060202d 	move	a0,v1
ffffffffa08046b4:	0040282d 	move	a1,v0
ffffffffa08046b8:	0c20094c 	jal	ffffffffa0802530 <vt100_move_cursor>
ffffffffa08046bc:	00000000 	nop
ffffffffa08046c0:	3c020000 	lui	v0,0x0
ffffffffa08046c4:	64420000 	daddiu	v0,v0,0
ffffffffa08046c8:	00021438 	dsll	v0,v0,0x10
ffffffffa08046cc:	6442a080 	daddiu	v0,v0,-24448
ffffffffa08046d0:	00021438 	dsll	v0,v0,0x10
ffffffffa08046d4:	64445420 	daddiu	a0,v0,21536
ffffffffa08046d8:	3c020000 	lui	v0,0x0
ffffffffa08046dc:	64420000 	daddiu	v0,v0,0
ffffffffa08046e0:	00021438 	dsll	v0,v0,0x10
ffffffffa08046e4:	6442a080 	daddiu	v0,v0,-24448
ffffffffa08046e8:	00021438 	dsll	v0,v0,0x10
ffffffffa08046ec:	64455d18 	daddiu	a1,v0,23832
ffffffffa08046f0:	0c2010c7 	jal	ffffffffa080431c <printk>
ffffffffa08046f4:	00000000 	nop
ffffffffa08046f8:	8fc20004 	lw	v0,4(s8)
ffffffffa08046fc:	24420003 	addiu	v0,v0,3
ffffffffa0804700:	8fc30000 	lw	v1,0(s8)
ffffffffa0804704:	0060202d 	move	a0,v1
ffffffffa0804708:	0040282d 	move	a1,v0
ffffffffa080470c:	0c20094c 	jal	ffffffffa0802530 <vt100_move_cursor>
ffffffffa0804710:	00000000 	nop
ffffffffa0804714:	3c020000 	lui	v0,0x0
ffffffffa0804718:	64420000 	daddiu	v0,v0,0
ffffffffa080471c:	00021438 	dsll	v0,v0,0x10
ffffffffa0804720:	6442a080 	daddiu	v0,v0,-24448
ffffffffa0804724:	00021438 	dsll	v0,v0,0x10
ffffffffa0804728:	64445420 	daddiu	a0,v0,21536
ffffffffa080472c:	3c020000 	lui	v0,0x0
ffffffffa0804730:	64420000 	daddiu	v0,v0,0
ffffffffa0804734:	00021438 	dsll	v0,v0,0x10
ffffffffa0804738:	6442a080 	daddiu	v0,v0,-24448
ffffffffa080473c:	00021438 	dsll	v0,v0,0x10
ffffffffa0804740:	64455d30 	daddiu	a1,v0,23856
ffffffffa0804744:	0c2010c7 	jal	ffffffffa080431c <printk>
ffffffffa0804748:	00000000 	nop
ffffffffa080474c:	8fc20000 	lw	v0,0(s8)
ffffffffa0804750:	2442ffff 	addiu	v0,v0,-1
ffffffffa0804754:	afc20000 	sw	v0,0(s8)
ffffffffa0804758:	8fc20000 	lw	v0,0(s8)
ffffffffa080475c:	1c40ffa8 	bgtz	v0,ffffffffa0804600 <drawing_task1+0x28>
ffffffffa0804760:	00000000 	nop
ffffffffa0804764:	0c20005a 	jal	ffffffffa0800168 <do_scheduler>
ffffffffa0804768:	00000000 	nop
ffffffffa080476c:	8fc20004 	lw	v0,4(s8)
ffffffffa0804770:	24040001 	li	a0,1
ffffffffa0804774:	0040282d 	move	a1,v0
ffffffffa0804778:	0c20094c 	jal	ffffffffa0802530 <vt100_move_cursor>
ffffffffa080477c:	00000000 	nop
ffffffffa0804780:	3c020000 	lui	v0,0x0
ffffffffa0804784:	64420000 	daddiu	v0,v0,0
ffffffffa0804788:	00021438 	dsll	v0,v0,0x10
ffffffffa080478c:	6442a080 	daddiu	v0,v0,-24448
ffffffffa0804790:	00021438 	dsll	v0,v0,0x10
ffffffffa0804794:	64445420 	daddiu	a0,v0,21536
ffffffffa0804798:	3c020000 	lui	v0,0x0
ffffffffa080479c:	64420000 	daddiu	v0,v0,0
ffffffffa08047a0:	00021438 	dsll	v0,v0,0x10
ffffffffa08047a4:	6442a080 	daddiu	v0,v0,-24448
ffffffffa08047a8:	00021438 	dsll	v0,v0,0x10
ffffffffa08047ac:	64455cd0 	daddiu	a1,v0,23760
ffffffffa08047b0:	0c2010c7 	jal	ffffffffa080431c <printk>
ffffffffa08047b4:	00000000 	nop
ffffffffa08047b8:	8fc20004 	lw	v0,4(s8)
ffffffffa08047bc:	24420001 	addiu	v0,v0,1
ffffffffa08047c0:	24040001 	li	a0,1
ffffffffa08047c4:	0040282d 	move	a1,v0
ffffffffa08047c8:	0c20094c 	jal	ffffffffa0802530 <vt100_move_cursor>
ffffffffa08047cc:	00000000 	nop
ffffffffa08047d0:	3c020000 	lui	v0,0x0
ffffffffa08047d4:	64420000 	daddiu	v0,v0,0
ffffffffa08047d8:	00021438 	dsll	v0,v0,0x10
ffffffffa08047dc:	6442a080 	daddiu	v0,v0,-24448
ffffffffa08047e0:	00021438 	dsll	v0,v0,0x10
ffffffffa08047e4:	64445420 	daddiu	a0,v0,21536
ffffffffa08047e8:	3c020000 	lui	v0,0x0
ffffffffa08047ec:	64420000 	daddiu	v0,v0,0
ffffffffa08047f0:	00021438 	dsll	v0,v0,0x10
ffffffffa08047f4:	6442a080 	daddiu	v0,v0,-24448
ffffffffa08047f8:	00021438 	dsll	v0,v0,0x10
ffffffffa08047fc:	64455cd0 	daddiu	a1,v0,23760
ffffffffa0804800:	0c2010c7 	jal	ffffffffa080431c <printk>
ffffffffa0804804:	00000000 	nop
ffffffffa0804808:	8fc20004 	lw	v0,4(s8)
ffffffffa080480c:	24420002 	addiu	v0,v0,2
ffffffffa0804810:	24040001 	li	a0,1
ffffffffa0804814:	0040282d 	move	a1,v0
ffffffffa0804818:	0c20094c 	jal	ffffffffa0802530 <vt100_move_cursor>
ffffffffa080481c:	00000000 	nop
ffffffffa0804820:	3c020000 	lui	v0,0x0
ffffffffa0804824:	64420000 	daddiu	v0,v0,0
ffffffffa0804828:	00021438 	dsll	v0,v0,0x10
ffffffffa080482c:	6442a080 	daddiu	v0,v0,-24448
ffffffffa0804830:	00021438 	dsll	v0,v0,0x10
ffffffffa0804834:	64445420 	daddiu	a0,v0,21536
ffffffffa0804838:	3c020000 	lui	v0,0x0
ffffffffa080483c:	64420000 	daddiu	v0,v0,0
ffffffffa0804840:	00021438 	dsll	v0,v0,0x10
ffffffffa0804844:	6442a080 	daddiu	v0,v0,-24448
ffffffffa0804848:	00021438 	dsll	v0,v0,0x10
ffffffffa080484c:	64455cd0 	daddiu	a1,v0,23760
ffffffffa0804850:	0c2010c7 	jal	ffffffffa080431c <printk>
ffffffffa0804854:	00000000 	nop
ffffffffa0804858:	8fc20004 	lw	v0,4(s8)
ffffffffa080485c:	24420003 	addiu	v0,v0,3
ffffffffa0804860:	24040001 	li	a0,1
ffffffffa0804864:	0040282d 	move	a1,v0
ffffffffa0804868:	0c20094c 	jal	ffffffffa0802530 <vt100_move_cursor>
ffffffffa080486c:	00000000 	nop
ffffffffa0804870:	3c020000 	lui	v0,0x0
ffffffffa0804874:	64420000 	daddiu	v0,v0,0
ffffffffa0804878:	00021438 	dsll	v0,v0,0x10
ffffffffa080487c:	6442a080 	daddiu	v0,v0,-24448
ffffffffa0804880:	00021438 	dsll	v0,v0,0x10
ffffffffa0804884:	64445420 	daddiu	a0,v0,21536
ffffffffa0804888:	3c020000 	lui	v0,0x0
ffffffffa080488c:	64420000 	daddiu	v0,v0,0
ffffffffa0804890:	00021438 	dsll	v0,v0,0x10
ffffffffa0804894:	6442a080 	daddiu	v0,v0,-24448
ffffffffa0804898:	00021438 	dsll	v0,v0,0x10
ffffffffa080489c:	64455cd0 	daddiu	a1,v0,23760
ffffffffa08048a0:	0c2010c7 	jal	ffffffffa080431c <printk>
ffffffffa08048a4:	00000000 	nop
ffffffffa08048a8:	0820117c 	j	ffffffffa08045f0 <drawing_task1+0x18>
ffffffffa08048ac:	00000000 	nop

ffffffffa08048b0 <printf_task1>:
ffffffffa08048b0:	67bdffe0 	daddiu	sp,sp,-32
ffffffffa08048b4:	ffbf0018 	sd	ra,24(sp)
ffffffffa08048b8:	ffbe0010 	sd	s8,16(sp)
ffffffffa08048bc:	03a0f02d 	move	s8,sp
ffffffffa08048c0:	24020001 	li	v0,1
ffffffffa08048c4:	afc20004 	sw	v0,4(s8)
ffffffffa08048c8:	afc00000 	sw	zero,0(s8)
ffffffffa08048cc:	8fc20004 	lw	v0,4(s8)
ffffffffa08048d0:	24040001 	li	a0,1
ffffffffa08048d4:	0040282d 	move	a1,v0
ffffffffa08048d8:	0c200c77 	jal	ffffffffa08031dc <sys_move_cursor>
ffffffffa08048dc:	00000000 	nop
ffffffffa08048e0:	8fc30000 	lw	v1,0(s8)
ffffffffa08048e4:	3c020000 	lui	v0,0x0
ffffffffa08048e8:	64420000 	daddiu	v0,v0,0
ffffffffa08048ec:	00021438 	dsll	v0,v0,0x10
ffffffffa08048f0:	6442a080 	daddiu	v0,v0,-24448
ffffffffa08048f4:	00021438 	dsll	v0,v0,0x10
ffffffffa08048f8:	64445430 	daddiu	a0,v0,21552
ffffffffa08048fc:	0060282d 	move	a1,v1
ffffffffa0804900:	0c2010ed 	jal	ffffffffa08043b4 <printf>
ffffffffa0804904:	00000000 	nop
ffffffffa0804908:	8fc20000 	lw	v0,0(s8)
ffffffffa080490c:	24420001 	addiu	v0,v0,1
ffffffffa0804910:	afc20000 	sw	v0,0(s8)
ffffffffa0804914:	08201233 	j	ffffffffa08048cc <printf_task1+0x1c>
ffffffffa0804918:	00000000 	nop

ffffffffa080491c <printf_task2>:
ffffffffa080491c:	67bdffe0 	daddiu	sp,sp,-32
ffffffffa0804920:	ffbf0018 	sd	ra,24(sp)
ffffffffa0804924:	ffbe0010 	sd	s8,16(sp)
ffffffffa0804928:	03a0f02d 	move	s8,sp
ffffffffa080492c:	24020002 	li	v0,2
ffffffffa0804930:	afc20004 	sw	v0,4(s8)
ffffffffa0804934:	afc00000 	sw	zero,0(s8)
ffffffffa0804938:	8fc20004 	lw	v0,4(s8)
ffffffffa080493c:	24040001 	li	a0,1
ffffffffa0804940:	0040282d 	move	a1,v0
ffffffffa0804944:	0c200c77 	jal	ffffffffa08031dc <sys_move_cursor>
ffffffffa0804948:	00000000 	nop
ffffffffa080494c:	8fc30000 	lw	v1,0(s8)
ffffffffa0804950:	3c020000 	lui	v0,0x0
ffffffffa0804954:	64420000 	daddiu	v0,v0,0
ffffffffa0804958:	00021438 	dsll	v0,v0,0x10
ffffffffa080495c:	6442a080 	daddiu	v0,v0,-24448
ffffffffa0804960:	00021438 	dsll	v0,v0,0x10
ffffffffa0804964:	64445430 	daddiu	a0,v0,21552
ffffffffa0804968:	0060282d 	move	a1,v1
ffffffffa080496c:	0c2010ed 	jal	ffffffffa08043b4 <printf>
ffffffffa0804970:	00000000 	nop
ffffffffa0804974:	8fc20000 	lw	v0,0(s8)
ffffffffa0804978:	24420001 	addiu	v0,v0,1
ffffffffa080497c:	afc20000 	sw	v0,0(s8)
ffffffffa0804980:	0820124e 	j	ffffffffa0804938 <printf_task2+0x1c>
ffffffffa0804984:	00000000 	nop

ffffffffa0804988 <drawing_task2>:
ffffffffa0804988:	67bdffe0 	daddiu	sp,sp,-32
ffffffffa080498c:	ffbf0018 	sd	ra,24(sp)
ffffffffa0804990:	ffbe0010 	sd	s8,16(sp)
ffffffffa0804994:	03a0f02d 	move	s8,sp
ffffffffa0804998:	24020016 	li	v0,22
ffffffffa080499c:	afc20004 	sw	v0,4(s8)
ffffffffa08049a0:	24020037 	li	v0,55
ffffffffa08049a4:	afc20000 	sw	v0,0(s8)
ffffffffa08049a8:	082012c2 	j	ffffffffa0804b08 <drawing_task2+0x180>
ffffffffa08049ac:	00000000 	nop
ffffffffa08049b0:	8fc30000 	lw	v1,0(s8)
ffffffffa08049b4:	8fc20004 	lw	v0,4(s8)
ffffffffa08049b8:	0060202d 	move	a0,v1
ffffffffa08049bc:	0040282d 	move	a1,v0
ffffffffa08049c0:	0c200c77 	jal	ffffffffa08031dc <sys_move_cursor>
ffffffffa08049c4:	00000000 	nop
ffffffffa08049c8:	3c020000 	lui	v0,0x0
ffffffffa08049cc:	64420000 	daddiu	v0,v0,0
ffffffffa08049d0:	00021438 	dsll	v0,v0,0x10
ffffffffa08049d4:	6442a080 	daddiu	v0,v0,-24448
ffffffffa08049d8:	00021438 	dsll	v0,v0,0x10
ffffffffa08049dc:	64445460 	daddiu	a0,v0,21600
ffffffffa08049e0:	3c020000 	lui	v0,0x0
ffffffffa08049e4:	64420000 	daddiu	v0,v0,0
ffffffffa08049e8:	00021438 	dsll	v0,v0,0x10
ffffffffa08049ec:	6442a080 	daddiu	v0,v0,-24448
ffffffffa08049f0:	00021438 	dsll	v0,v0,0x10
ffffffffa08049f4:	64455d68 	daddiu	a1,v0,23912
ffffffffa08049f8:	0c2010ed 	jal	ffffffffa08043b4 <printf>
ffffffffa08049fc:	00000000 	nop
ffffffffa0804a00:	8fc20004 	lw	v0,4(s8)
ffffffffa0804a04:	24420001 	addiu	v0,v0,1
ffffffffa0804a08:	8fc30000 	lw	v1,0(s8)
ffffffffa0804a0c:	0060202d 	move	a0,v1
ffffffffa0804a10:	0040282d 	move	a1,v0
ffffffffa0804a14:	0c200c77 	jal	ffffffffa08031dc <sys_move_cursor>
ffffffffa0804a18:	00000000 	nop
ffffffffa0804a1c:	3c020000 	lui	v0,0x0
ffffffffa0804a20:	64420000 	daddiu	v0,v0,0
ffffffffa0804a24:	00021438 	dsll	v0,v0,0x10
ffffffffa0804a28:	6442a080 	daddiu	v0,v0,-24448
ffffffffa0804a2c:	00021438 	dsll	v0,v0,0x10
ffffffffa0804a30:	64445460 	daddiu	a0,v0,21600
ffffffffa0804a34:	3c020000 	lui	v0,0x0
ffffffffa0804a38:	64420000 	daddiu	v0,v0,0
ffffffffa0804a3c:	00021438 	dsll	v0,v0,0x10
ffffffffa0804a40:	6442a080 	daddiu	v0,v0,-24448
ffffffffa0804a44:	00021438 	dsll	v0,v0,0x10
ffffffffa0804a48:	64455d80 	daddiu	a1,v0,23936
ffffffffa0804a4c:	0c2010ed 	jal	ffffffffa08043b4 <printf>
ffffffffa0804a50:	00000000 	nop
ffffffffa0804a54:	8fc20004 	lw	v0,4(s8)
ffffffffa0804a58:	24420002 	addiu	v0,v0,2
ffffffffa0804a5c:	8fc30000 	lw	v1,0(s8)
ffffffffa0804a60:	0060202d 	move	a0,v1
ffffffffa0804a64:	0040282d 	move	a1,v0
ffffffffa0804a68:	0c200c77 	jal	ffffffffa08031dc <sys_move_cursor>
ffffffffa0804a6c:	00000000 	nop
ffffffffa0804a70:	3c020000 	lui	v0,0x0
ffffffffa0804a74:	64420000 	daddiu	v0,v0,0
ffffffffa0804a78:	00021438 	dsll	v0,v0,0x10
ffffffffa0804a7c:	6442a080 	daddiu	v0,v0,-24448
ffffffffa0804a80:	00021438 	dsll	v0,v0,0x10
ffffffffa0804a84:	64445460 	daddiu	a0,v0,21600
ffffffffa0804a88:	3c020000 	lui	v0,0x0
ffffffffa0804a8c:	64420000 	daddiu	v0,v0,0
ffffffffa0804a90:	00021438 	dsll	v0,v0,0x10
ffffffffa0804a94:	6442a080 	daddiu	v0,v0,-24448
ffffffffa0804a98:	00021438 	dsll	v0,v0,0x10
ffffffffa0804a9c:	64455d98 	daddiu	a1,v0,23960
ffffffffa0804aa0:	0c2010ed 	jal	ffffffffa08043b4 <printf>
ffffffffa0804aa4:	00000000 	nop
ffffffffa0804aa8:	8fc20004 	lw	v0,4(s8)
ffffffffa0804aac:	24420003 	addiu	v0,v0,3
ffffffffa0804ab0:	8fc30000 	lw	v1,0(s8)
ffffffffa0804ab4:	0060202d 	move	a0,v1
ffffffffa0804ab8:	0040282d 	move	a1,v0
ffffffffa0804abc:	0c200c77 	jal	ffffffffa08031dc <sys_move_cursor>
ffffffffa0804ac0:	00000000 	nop
ffffffffa0804ac4:	3c020000 	lui	v0,0x0
ffffffffa0804ac8:	64420000 	daddiu	v0,v0,0
ffffffffa0804acc:	00021438 	dsll	v0,v0,0x10
ffffffffa0804ad0:	6442a080 	daddiu	v0,v0,-24448
ffffffffa0804ad4:	00021438 	dsll	v0,v0,0x10
ffffffffa0804ad8:	64445460 	daddiu	a0,v0,21600
ffffffffa0804adc:	3c020000 	lui	v0,0x0
ffffffffa0804ae0:	64420000 	daddiu	v0,v0,0
ffffffffa0804ae4:	00021438 	dsll	v0,v0,0x10
ffffffffa0804ae8:	6442a080 	daddiu	v0,v0,-24448
ffffffffa0804aec:	00021438 	dsll	v0,v0,0x10
ffffffffa0804af0:	64455db0 	daddiu	a1,v0,23984
ffffffffa0804af4:	0c2010ed 	jal	ffffffffa08043b4 <printf>
ffffffffa0804af8:	00000000 	nop
ffffffffa0804afc:	8fc20000 	lw	v0,0(s8)
ffffffffa0804b00:	2442ffff 	addiu	v0,v0,-1
ffffffffa0804b04:	afc20000 	sw	v0,0(s8)
ffffffffa0804b08:	8fc20000 	lw	v0,0(s8)
ffffffffa0804b0c:	1c40ffa8 	bgtz	v0,ffffffffa08049b0 <drawing_task2+0x28>
ffffffffa0804b10:	00000000 	nop
ffffffffa0804b14:	8fc20004 	lw	v0,4(s8)
ffffffffa0804b18:	24040001 	li	a0,1
ffffffffa0804b1c:	0040282d 	move	a1,v0
ffffffffa0804b20:	0c200c77 	jal	ffffffffa08031dc <sys_move_cursor>
ffffffffa0804b24:	00000000 	nop
ffffffffa0804b28:	3c020000 	lui	v0,0x0
ffffffffa0804b2c:	64420000 	daddiu	v0,v0,0
ffffffffa0804b30:	00021438 	dsll	v0,v0,0x10
ffffffffa0804b34:	6442a080 	daddiu	v0,v0,-24448
ffffffffa0804b38:	00021438 	dsll	v0,v0,0x10
ffffffffa0804b3c:	64445460 	daddiu	a0,v0,21600
ffffffffa0804b40:	3c020000 	lui	v0,0x0
ffffffffa0804b44:	64420000 	daddiu	v0,v0,0
ffffffffa0804b48:	00021438 	dsll	v0,v0,0x10
ffffffffa0804b4c:	6442a080 	daddiu	v0,v0,-24448
ffffffffa0804b50:	00021438 	dsll	v0,v0,0x10
ffffffffa0804b54:	64455d50 	daddiu	a1,v0,23888
ffffffffa0804b58:	0c2010ed 	jal	ffffffffa08043b4 <printf>
ffffffffa0804b5c:	00000000 	nop
ffffffffa0804b60:	8fc20004 	lw	v0,4(s8)
ffffffffa0804b64:	24420001 	addiu	v0,v0,1
ffffffffa0804b68:	24040001 	li	a0,1
ffffffffa0804b6c:	0040282d 	move	a1,v0
ffffffffa0804b70:	0c200c77 	jal	ffffffffa08031dc <sys_move_cursor>
ffffffffa0804b74:	00000000 	nop
ffffffffa0804b78:	3c020000 	lui	v0,0x0
ffffffffa0804b7c:	64420000 	daddiu	v0,v0,0
ffffffffa0804b80:	00021438 	dsll	v0,v0,0x10
ffffffffa0804b84:	6442a080 	daddiu	v0,v0,-24448
ffffffffa0804b88:	00021438 	dsll	v0,v0,0x10
ffffffffa0804b8c:	64445460 	daddiu	a0,v0,21600
ffffffffa0804b90:	3c020000 	lui	v0,0x0
ffffffffa0804b94:	64420000 	daddiu	v0,v0,0
ffffffffa0804b98:	00021438 	dsll	v0,v0,0x10
ffffffffa0804b9c:	6442a080 	daddiu	v0,v0,-24448
ffffffffa0804ba0:	00021438 	dsll	v0,v0,0x10
ffffffffa0804ba4:	64455d50 	daddiu	a1,v0,23888
ffffffffa0804ba8:	0c2010ed 	jal	ffffffffa08043b4 <printf>
ffffffffa0804bac:	00000000 	nop
ffffffffa0804bb0:	8fc20004 	lw	v0,4(s8)
ffffffffa0804bb4:	24420002 	addiu	v0,v0,2
ffffffffa0804bb8:	24040001 	li	a0,1
ffffffffa0804bbc:	0040282d 	move	a1,v0
ffffffffa0804bc0:	0c200c77 	jal	ffffffffa08031dc <sys_move_cursor>
ffffffffa0804bc4:	00000000 	nop
ffffffffa0804bc8:	3c020000 	lui	v0,0x0
ffffffffa0804bcc:	64420000 	daddiu	v0,v0,0
ffffffffa0804bd0:	00021438 	dsll	v0,v0,0x10
ffffffffa0804bd4:	6442a080 	daddiu	v0,v0,-24448
ffffffffa0804bd8:	00021438 	dsll	v0,v0,0x10
ffffffffa0804bdc:	64445460 	daddiu	a0,v0,21600
ffffffffa0804be0:	3c020000 	lui	v0,0x0
ffffffffa0804be4:	64420000 	daddiu	v0,v0,0
ffffffffa0804be8:	00021438 	dsll	v0,v0,0x10
ffffffffa0804bec:	6442a080 	daddiu	v0,v0,-24448
ffffffffa0804bf0:	00021438 	dsll	v0,v0,0x10
ffffffffa0804bf4:	64455d50 	daddiu	a1,v0,23888
ffffffffa0804bf8:	0c2010ed 	jal	ffffffffa08043b4 <printf>
ffffffffa0804bfc:	00000000 	nop
ffffffffa0804c00:	8fc20004 	lw	v0,4(s8)
ffffffffa0804c04:	24420003 	addiu	v0,v0,3
ffffffffa0804c08:	24040001 	li	a0,1
ffffffffa0804c0c:	0040282d 	move	a1,v0
ffffffffa0804c10:	0c200c77 	jal	ffffffffa08031dc <sys_move_cursor>
ffffffffa0804c14:	00000000 	nop
ffffffffa0804c18:	3c020000 	lui	v0,0x0
ffffffffa0804c1c:	64420000 	daddiu	v0,v0,0
ffffffffa0804c20:	00021438 	dsll	v0,v0,0x10
ffffffffa0804c24:	6442a080 	daddiu	v0,v0,-24448
ffffffffa0804c28:	00021438 	dsll	v0,v0,0x10
ffffffffa0804c2c:	64445460 	daddiu	a0,v0,21600
ffffffffa0804c30:	3c020000 	lui	v0,0x0
ffffffffa0804c34:	64420000 	daddiu	v0,v0,0
ffffffffa0804c38:	00021438 	dsll	v0,v0,0x10
ffffffffa0804c3c:	6442a080 	daddiu	v0,v0,-24448
ffffffffa0804c40:	00021438 	dsll	v0,v0,0x10
ffffffffa0804c44:	64455d50 	daddiu	a1,v0,23888
ffffffffa0804c48:	0c2010ed 	jal	ffffffffa08043b4 <printf>
ffffffffa0804c4c:	00000000 	nop
ffffffffa0804c50:	08201268 	j	ffffffffa08049a0 <drawing_task2+0x18>
ffffffffa0804c54:	00000000 	nop
	...

ffffffffa0804c60 <lock_task1>:
ffffffffa0804c60:	67bdffe0 	daddiu	sp,sp,-32
ffffffffa0804c64:	ffbf0018 	sd	ra,24(sp)
ffffffffa0804c68:	ffbe0010 	sd	s8,16(sp)
ffffffffa0804c6c:	03a0f02d 	move	s8,sp
ffffffffa0804c70:	24020003 	li	v0,3
ffffffffa0804c74:	afc20004 	sw	v0,4(s8)
ffffffffa0804c78:	3c020000 	lui	v0,0x0
ffffffffa0804c7c:	64420000 	daddiu	v0,v0,0
ffffffffa0804c80:	00021438 	dsll	v0,v0,0x10
ffffffffa0804c84:	6442a080 	daddiu	v0,v0,-24448
ffffffffa0804c88:	00021438 	dsll	v0,v0,0x10
ffffffffa0804c8c:	8c4272b0 	lw	v0,29360(v0)
ffffffffa0804c90:	14400010 	bnez	v0,ffffffffa0804cd4 <lock_task1+0x74>
ffffffffa0804c94:	00000000 	nop
ffffffffa0804c98:	3c020000 	lui	v0,0x0
ffffffffa0804c9c:	64420000 	daddiu	v0,v0,0
ffffffffa0804ca0:	00021438 	dsll	v0,v0,0x10
ffffffffa0804ca4:	6442a081 	daddiu	v0,v0,-24447
ffffffffa0804ca8:	00021438 	dsll	v0,v0,0x10
ffffffffa0804cac:	6444cbf8 	daddiu	a0,v0,-13320
ffffffffa0804cb0:	0c2006d8 	jal	ffffffffa0801b60 <do_mutex_lock_init>
ffffffffa0804cb4:	00000000 	nop
ffffffffa0804cb8:	3c020000 	lui	v0,0x0
ffffffffa0804cbc:	64420000 	daddiu	v0,v0,0
ffffffffa0804cc0:	00021438 	dsll	v0,v0,0x10
ffffffffa0804cc4:	6442a080 	daddiu	v0,v0,-24448
ffffffffa0804cc8:	00021438 	dsll	v0,v0,0x10
ffffffffa0804ccc:	24030001 	li	v1,1
ffffffffa0804cd0:	ac4372b0 	sw	v1,29360(v0)
ffffffffa0804cd4:	8fc20004 	lw	v0,4(s8)
ffffffffa0804cd8:	24040001 	li	a0,1
ffffffffa0804cdc:	0040282d 	move	a1,v0
ffffffffa0804ce0:	0c20094c 	jal	ffffffffa0802530 <vt100_move_cursor>
ffffffffa0804ce4:	00000000 	nop
ffffffffa0804ce8:	3c020000 	lui	v0,0x0
ffffffffa0804cec:	64420000 	daddiu	v0,v0,0
ffffffffa0804cf0:	00021438 	dsll	v0,v0,0x10
ffffffffa0804cf4:	6442a080 	daddiu	v0,v0,-24448
ffffffffa0804cf8:	00021438 	dsll	v0,v0,0x10
ffffffffa0804cfc:	64445470 	daddiu	a0,v0,21616
ffffffffa0804d00:	3c020000 	lui	v0,0x0
ffffffffa0804d04:	64420000 	daddiu	v0,v0,0
ffffffffa0804d08:	00021438 	dsll	v0,v0,0x10
ffffffffa0804d0c:	6442a080 	daddiu	v0,v0,-24448
ffffffffa0804d10:	00021438 	dsll	v0,v0,0x10
ffffffffa0804d14:	64455dd0 	daddiu	a1,v0,24016
ffffffffa0804d18:	0c2010c7 	jal	ffffffffa080431c <printk>
ffffffffa0804d1c:	00000000 	nop
ffffffffa0804d20:	8fc20004 	lw	v0,4(s8)
ffffffffa0804d24:	24040001 	li	a0,1
ffffffffa0804d28:	0040282d 	move	a1,v0
ffffffffa0804d2c:	0c20094c 	jal	ffffffffa0802530 <vt100_move_cursor>
ffffffffa0804d30:	00000000 	nop
ffffffffa0804d34:	3c020000 	lui	v0,0x0
ffffffffa0804d38:	64420000 	daddiu	v0,v0,0
ffffffffa0804d3c:	00021438 	dsll	v0,v0,0x10
ffffffffa0804d40:	6442a080 	daddiu	v0,v0,-24448
ffffffffa0804d44:	00021438 	dsll	v0,v0,0x10
ffffffffa0804d48:	64445478 	daddiu	a0,v0,21624
ffffffffa0804d4c:	0c2010c7 	jal	ffffffffa080431c <printk>
ffffffffa0804d50:	00000000 	nop
ffffffffa0804d54:	0c20005a 	jal	ffffffffa0800168 <do_scheduler>
ffffffffa0804d58:	00000000 	nop
ffffffffa0804d5c:	3c020000 	lui	v0,0x0
ffffffffa0804d60:	64420000 	daddiu	v0,v0,0
ffffffffa0804d64:	00021438 	dsll	v0,v0,0x10
ffffffffa0804d68:	6442a081 	daddiu	v0,v0,-24447
ffffffffa0804d6c:	00021438 	dsll	v0,v0,0x10
ffffffffa0804d70:	6444cbf8 	daddiu	a0,v0,-13320
ffffffffa0804d74:	0c2006ea 	jal	ffffffffa0801ba8 <do_mutex_lock_acquire>
ffffffffa0804d78:	00000000 	nop
ffffffffa0804d7c:	afc00000 	sw	zero,0(s8)
ffffffffa0804d80:	08201376 	j	ffffffffa0804dd8 <lock_task1+0x178>
ffffffffa0804d84:	00000000 	nop
ffffffffa0804d88:	8fc20004 	lw	v0,4(s8)
ffffffffa0804d8c:	24040001 	li	a0,1
ffffffffa0804d90:	0040282d 	move	a1,v0
ffffffffa0804d94:	0c20094c 	jal	ffffffffa0802530 <vt100_move_cursor>
ffffffffa0804d98:	00000000 	nop
ffffffffa0804d9c:	8fc30000 	lw	v1,0(s8)
ffffffffa0804da0:	3c020000 	lui	v0,0x0
ffffffffa0804da4:	64420000 	daddiu	v0,v0,0
ffffffffa0804da8:	00021438 	dsll	v0,v0,0x10
ffffffffa0804dac:	6442a080 	daddiu	v0,v0,-24448
ffffffffa0804db0:	00021438 	dsll	v0,v0,0x10
ffffffffa0804db4:	64445498 	daddiu	a0,v0,21656
ffffffffa0804db8:	0060282d 	move	a1,v1
ffffffffa0804dbc:	0c2010c7 	jal	ffffffffa080431c <printk>
ffffffffa0804dc0:	00000000 	nop
ffffffffa0804dc4:	0c20005a 	jal	ffffffffa0800168 <do_scheduler>
ffffffffa0804dc8:	00000000 	nop
ffffffffa0804dcc:	8fc20000 	lw	v0,0(s8)
ffffffffa0804dd0:	24420001 	addiu	v0,v0,1
ffffffffa0804dd4:	afc20000 	sw	v0,0(s8)
ffffffffa0804dd8:	8fc20000 	lw	v0,0(s8)
ffffffffa0804ddc:	28420014 	slti	v0,v0,20
ffffffffa0804de0:	1440ffe9 	bnez	v0,ffffffffa0804d88 <lock_task1+0x128>
ffffffffa0804de4:	00000000 	nop
ffffffffa0804de8:	8fc20004 	lw	v0,4(s8)
ffffffffa0804dec:	24040001 	li	a0,1
ffffffffa0804df0:	0040282d 	move	a1,v0
ffffffffa0804df4:	0c20094c 	jal	ffffffffa0802530 <vt100_move_cursor>
ffffffffa0804df8:	00000000 	nop
ffffffffa0804dfc:	3c020000 	lui	v0,0x0
ffffffffa0804e00:	64420000 	daddiu	v0,v0,0
ffffffffa0804e04:	00021438 	dsll	v0,v0,0x10
ffffffffa0804e08:	6442a080 	daddiu	v0,v0,-24448
ffffffffa0804e0c:	00021438 	dsll	v0,v0,0x10
ffffffffa0804e10:	64445470 	daddiu	a0,v0,21616
ffffffffa0804e14:	3c020000 	lui	v0,0x0
ffffffffa0804e18:	64420000 	daddiu	v0,v0,0
ffffffffa0804e1c:	00021438 	dsll	v0,v0,0x10
ffffffffa0804e20:	6442a080 	daddiu	v0,v0,-24448
ffffffffa0804e24:	00021438 	dsll	v0,v0,0x10
ffffffffa0804e28:	64455dd0 	daddiu	a1,v0,24016
ffffffffa0804e2c:	0c2010c7 	jal	ffffffffa080431c <printk>
ffffffffa0804e30:	00000000 	nop
ffffffffa0804e34:	8fc20004 	lw	v0,4(s8)
ffffffffa0804e38:	24040001 	li	a0,1
ffffffffa0804e3c:	0040282d 	move	a1,v0
ffffffffa0804e40:	0c20094c 	jal	ffffffffa0802530 <vt100_move_cursor>
ffffffffa0804e44:	00000000 	nop
ffffffffa0804e48:	3c020000 	lui	v0,0x0
ffffffffa0804e4c:	64420000 	daddiu	v0,v0,0
ffffffffa0804e50:	00021438 	dsll	v0,v0,0x10
ffffffffa0804e54:	6442a080 	daddiu	v0,v0,-24448
ffffffffa0804e58:	00021438 	dsll	v0,v0,0x10
ffffffffa0804e5c:	644454c8 	daddiu	a0,v0,21704
ffffffffa0804e60:	0c2010c7 	jal	ffffffffa080431c <printk>
ffffffffa0804e64:	00000000 	nop
ffffffffa0804e68:	3c020000 	lui	v0,0x0
ffffffffa0804e6c:	64420000 	daddiu	v0,v0,0
ffffffffa0804e70:	00021438 	dsll	v0,v0,0x10
ffffffffa0804e74:	6442a081 	daddiu	v0,v0,-24447
ffffffffa0804e78:	00021438 	dsll	v0,v0,0x10
ffffffffa0804e7c:	6444cbf8 	daddiu	a0,v0,-13320
ffffffffa0804e80:	0c200706 	jal	ffffffffa0801c18 <do_mutex_lock_release>
ffffffffa0804e84:	00000000 	nop
ffffffffa0804e88:	0c20005a 	jal	ffffffffa0800168 <do_scheduler>
ffffffffa0804e8c:	00000000 	nop
ffffffffa0804e90:	0820131e 	j	ffffffffa0804c78 <lock_task1+0x18>
ffffffffa0804e94:	00000000 	nop

ffffffffa0804e98 <lock_task2>:
ffffffffa0804e98:	67bdffe0 	daddiu	sp,sp,-32
ffffffffa0804e9c:	ffbf0018 	sd	ra,24(sp)
ffffffffa0804ea0:	ffbe0010 	sd	s8,16(sp)
ffffffffa0804ea4:	03a0f02d 	move	s8,sp
ffffffffa0804ea8:	24020004 	li	v0,4
ffffffffa0804eac:	afc20004 	sw	v0,4(s8)
ffffffffa0804eb0:	3c020000 	lui	v0,0x0
ffffffffa0804eb4:	64420000 	daddiu	v0,v0,0
ffffffffa0804eb8:	00021438 	dsll	v0,v0,0x10
ffffffffa0804ebc:	6442a080 	daddiu	v0,v0,-24448
ffffffffa0804ec0:	00021438 	dsll	v0,v0,0x10
ffffffffa0804ec4:	8c4272b0 	lw	v0,29360(v0)
ffffffffa0804ec8:	14400010 	bnez	v0,ffffffffa0804f0c <lock_task2+0x74>
ffffffffa0804ecc:	00000000 	nop
ffffffffa0804ed0:	3c020000 	lui	v0,0x0
ffffffffa0804ed4:	64420000 	daddiu	v0,v0,0
ffffffffa0804ed8:	00021438 	dsll	v0,v0,0x10
ffffffffa0804edc:	6442a081 	daddiu	v0,v0,-24447
ffffffffa0804ee0:	00021438 	dsll	v0,v0,0x10
ffffffffa0804ee4:	6444cbf8 	daddiu	a0,v0,-13320
ffffffffa0804ee8:	0c2006d8 	jal	ffffffffa0801b60 <do_mutex_lock_init>
ffffffffa0804eec:	00000000 	nop
ffffffffa0804ef0:	3c020000 	lui	v0,0x0
ffffffffa0804ef4:	64420000 	daddiu	v0,v0,0
ffffffffa0804ef8:	00021438 	dsll	v0,v0,0x10
ffffffffa0804efc:	6442a080 	daddiu	v0,v0,-24448
ffffffffa0804f00:	00021438 	dsll	v0,v0,0x10
ffffffffa0804f04:	24030001 	li	v1,1
ffffffffa0804f08:	ac4372b0 	sw	v1,29360(v0)
ffffffffa0804f0c:	8fc20004 	lw	v0,4(s8)
ffffffffa0804f10:	24040001 	li	a0,1
ffffffffa0804f14:	0040282d 	move	a1,v0
ffffffffa0804f18:	0c20094c 	jal	ffffffffa0802530 <vt100_move_cursor>
ffffffffa0804f1c:	00000000 	nop
ffffffffa0804f20:	3c020000 	lui	v0,0x0
ffffffffa0804f24:	64420000 	daddiu	v0,v0,0
ffffffffa0804f28:	00021438 	dsll	v0,v0,0x10
ffffffffa0804f2c:	6442a080 	daddiu	v0,v0,-24448
ffffffffa0804f30:	00021438 	dsll	v0,v0,0x10
ffffffffa0804f34:	64445470 	daddiu	a0,v0,21616
ffffffffa0804f38:	3c020000 	lui	v0,0x0
ffffffffa0804f3c:	64420000 	daddiu	v0,v0,0
ffffffffa0804f40:	00021438 	dsll	v0,v0,0x10
ffffffffa0804f44:	6442a080 	daddiu	v0,v0,-24448
ffffffffa0804f48:	00021438 	dsll	v0,v0,0x10
ffffffffa0804f4c:	64455dd0 	daddiu	a1,v0,24016
ffffffffa0804f50:	0c2010c7 	jal	ffffffffa080431c <printk>
ffffffffa0804f54:	00000000 	nop
ffffffffa0804f58:	8fc20004 	lw	v0,4(s8)
ffffffffa0804f5c:	24040001 	li	a0,1
ffffffffa0804f60:	0040282d 	move	a1,v0
ffffffffa0804f64:	0c20094c 	jal	ffffffffa0802530 <vt100_move_cursor>
ffffffffa0804f68:	00000000 	nop
ffffffffa0804f6c:	3c020000 	lui	v0,0x0
ffffffffa0804f70:	64420000 	daddiu	v0,v0,0
ffffffffa0804f74:	00021438 	dsll	v0,v0,0x10
ffffffffa0804f78:	6442a080 	daddiu	v0,v0,-24448
ffffffffa0804f7c:	00021438 	dsll	v0,v0,0x10
ffffffffa0804f80:	64445478 	daddiu	a0,v0,21624
ffffffffa0804f84:	0c2010c7 	jal	ffffffffa080431c <printk>
ffffffffa0804f88:	00000000 	nop
ffffffffa0804f8c:	0c20005a 	jal	ffffffffa0800168 <do_scheduler>
ffffffffa0804f90:	00000000 	nop
ffffffffa0804f94:	3c020000 	lui	v0,0x0
ffffffffa0804f98:	64420000 	daddiu	v0,v0,0
ffffffffa0804f9c:	00021438 	dsll	v0,v0,0x10
ffffffffa0804fa0:	6442a081 	daddiu	v0,v0,-24447
ffffffffa0804fa4:	00021438 	dsll	v0,v0,0x10
ffffffffa0804fa8:	6444cbf8 	daddiu	a0,v0,-13320
ffffffffa0804fac:	0c2006ea 	jal	ffffffffa0801ba8 <do_mutex_lock_acquire>
ffffffffa0804fb0:	00000000 	nop
ffffffffa0804fb4:	afc00000 	sw	zero,0(s8)
ffffffffa0804fb8:	08201404 	j	ffffffffa0805010 <lock_task2+0x178>
ffffffffa0804fbc:	00000000 	nop
ffffffffa0804fc0:	8fc20004 	lw	v0,4(s8)
ffffffffa0804fc4:	24040001 	li	a0,1
ffffffffa0804fc8:	0040282d 	move	a1,v0
ffffffffa0804fcc:	0c20094c 	jal	ffffffffa0802530 <vt100_move_cursor>
ffffffffa0804fd0:	00000000 	nop
ffffffffa0804fd4:	8fc30000 	lw	v1,0(s8)
ffffffffa0804fd8:	3c020000 	lui	v0,0x0
ffffffffa0804fdc:	64420000 	daddiu	v0,v0,0
ffffffffa0804fe0:	00021438 	dsll	v0,v0,0x10
ffffffffa0804fe4:	6442a080 	daddiu	v0,v0,-24448
ffffffffa0804fe8:	00021438 	dsll	v0,v0,0x10
ffffffffa0804fec:	64445498 	daddiu	a0,v0,21656
ffffffffa0804ff0:	0060282d 	move	a1,v1
ffffffffa0804ff4:	0c2010c7 	jal	ffffffffa080431c <printk>
ffffffffa0804ff8:	00000000 	nop
ffffffffa0804ffc:	0c20005a 	jal	ffffffffa0800168 <do_scheduler>
ffffffffa0805000:	00000000 	nop
ffffffffa0805004:	8fc20000 	lw	v0,0(s8)
ffffffffa0805008:	24420001 	addiu	v0,v0,1
ffffffffa080500c:	afc20000 	sw	v0,0(s8)
ffffffffa0805010:	8fc20000 	lw	v0,0(s8)
ffffffffa0805014:	28420014 	slti	v0,v0,20
ffffffffa0805018:	1440ffe9 	bnez	v0,ffffffffa0804fc0 <lock_task2+0x128>
ffffffffa080501c:	00000000 	nop
ffffffffa0805020:	8fc20004 	lw	v0,4(s8)
ffffffffa0805024:	24040001 	li	a0,1
ffffffffa0805028:	0040282d 	move	a1,v0
ffffffffa080502c:	0c20094c 	jal	ffffffffa0802530 <vt100_move_cursor>
ffffffffa0805030:	00000000 	nop
ffffffffa0805034:	3c020000 	lui	v0,0x0
ffffffffa0805038:	64420000 	daddiu	v0,v0,0
ffffffffa080503c:	00021438 	dsll	v0,v0,0x10
ffffffffa0805040:	6442a080 	daddiu	v0,v0,-24448
ffffffffa0805044:	00021438 	dsll	v0,v0,0x10
ffffffffa0805048:	64445470 	daddiu	a0,v0,21616
ffffffffa080504c:	3c020000 	lui	v0,0x0
ffffffffa0805050:	64420000 	daddiu	v0,v0,0
ffffffffa0805054:	00021438 	dsll	v0,v0,0x10
ffffffffa0805058:	6442a080 	daddiu	v0,v0,-24448
ffffffffa080505c:	00021438 	dsll	v0,v0,0x10
ffffffffa0805060:	64455dd0 	daddiu	a1,v0,24016
ffffffffa0805064:	0c2010c7 	jal	ffffffffa080431c <printk>
ffffffffa0805068:	00000000 	nop
ffffffffa080506c:	8fc20004 	lw	v0,4(s8)
ffffffffa0805070:	24040001 	li	a0,1
ffffffffa0805074:	0040282d 	move	a1,v0
ffffffffa0805078:	0c20094c 	jal	ffffffffa0802530 <vt100_move_cursor>
ffffffffa080507c:	00000000 	nop
ffffffffa0805080:	3c020000 	lui	v0,0x0
ffffffffa0805084:	64420000 	daddiu	v0,v0,0
ffffffffa0805088:	00021438 	dsll	v0,v0,0x10
ffffffffa080508c:	6442a080 	daddiu	v0,v0,-24448
ffffffffa0805090:	00021438 	dsll	v0,v0,0x10
ffffffffa0805094:	644454c8 	daddiu	a0,v0,21704
ffffffffa0805098:	0c2010c7 	jal	ffffffffa080431c <printk>
ffffffffa080509c:	00000000 	nop
ffffffffa08050a0:	3c020000 	lui	v0,0x0
ffffffffa08050a4:	64420000 	daddiu	v0,v0,0
ffffffffa08050a8:	00021438 	dsll	v0,v0,0x10
ffffffffa08050ac:	6442a081 	daddiu	v0,v0,-24447
ffffffffa08050b0:	00021438 	dsll	v0,v0,0x10
ffffffffa08050b4:	6444cbf8 	daddiu	a0,v0,-13320
ffffffffa08050b8:	0c200706 	jal	ffffffffa0801c18 <do_mutex_lock_release>
ffffffffa08050bc:	00000000 	nop
ffffffffa08050c0:	0c20005a 	jal	ffffffffa0800168 <do_scheduler>
ffffffffa08050c4:	00000000 	nop
ffffffffa08050c8:	082013ac 	j	ffffffffa0804eb0 <lock_task2+0x18>
ffffffffa08050cc:	00000000 	nop

ffffffffa08050d0 <sleep_task>:
ffffffffa08050d0:	67bdffe0 	daddiu	sp,sp,-32
ffffffffa08050d4:	ffbf0018 	sd	ra,24(sp)
ffffffffa08050d8:	ffbe0010 	sd	s8,16(sp)
ffffffffa08050dc:	03a0f02d 	move	s8,sp
ffffffffa08050e0:	24020008 	li	v0,8
ffffffffa08050e4:	afc20008 	sw	v0,8(s8)
ffffffffa08050e8:	24020005 	li	v0,5
ffffffffa08050ec:	afc20004 	sw	v0,4(s8)
ffffffffa08050f0:	afc00000 	sw	zero,0(s8)
ffffffffa08050f4:	08201451 	j	ffffffffa0805144 <sleep_task+0x74>
ffffffffa08050f8:	00000000 	nop
ffffffffa08050fc:	8fc20008 	lw	v0,8(s8)
ffffffffa0805100:	24040001 	li	a0,1
ffffffffa0805104:	0040282d 	move	a1,v0
ffffffffa0805108:	0c200c77 	jal	ffffffffa08031dc <sys_move_cursor>
ffffffffa080510c:	00000000 	nop
ffffffffa0805110:	8fc30000 	lw	v1,0(s8)
ffffffffa0805114:	3c020000 	lui	v0,0x0
ffffffffa0805118:	64420000 	daddiu	v0,v0,0
ffffffffa080511c:	00021438 	dsll	v0,v0,0x10
ffffffffa0805120:	6442a080 	daddiu	v0,v0,-24448
ffffffffa0805124:	00021438 	dsll	v0,v0,0x10
ffffffffa0805128:	644454f0 	daddiu	a0,v0,21744
ffffffffa080512c:	0060282d 	move	a1,v1
ffffffffa0805130:	0c2010ed 	jal	ffffffffa08043b4 <printf>
ffffffffa0805134:	00000000 	nop
ffffffffa0805138:	8fc20000 	lw	v0,0(s8)
ffffffffa080513c:	24420001 	addiu	v0,v0,1
ffffffffa0805140:	afc20000 	sw	v0,0(s8)
ffffffffa0805144:	8fc20000 	lw	v0,0(s8)
ffffffffa0805148:	28424e20 	slti	v0,v0,20000
ffffffffa080514c:	1440ffeb 	bnez	v0,ffffffffa08050fc <sleep_task+0x2c>
ffffffffa0805150:	00000000 	nop
ffffffffa0805154:	8fc20008 	lw	v0,8(s8)
ffffffffa0805158:	24040001 	li	a0,1
ffffffffa080515c:	0040282d 	move	a1,v0
ffffffffa0805160:	0c200c77 	jal	ffffffffa08031dc <sys_move_cursor>
ffffffffa0805164:	00000000 	nop
ffffffffa0805168:	8fc30004 	lw	v1,4(s8)
ffffffffa080516c:	3c020000 	lui	v0,0x0
ffffffffa0805170:	64420000 	daddiu	v0,v0,0
ffffffffa0805174:	00021438 	dsll	v0,v0,0x10
ffffffffa0805178:	6442a080 	daddiu	v0,v0,-24448
ffffffffa080517c:	00021438 	dsll	v0,v0,0x10
ffffffffa0805180:	64445520 	daddiu	a0,v0,21792
ffffffffa0805184:	0060282d 	move	a1,v1
ffffffffa0805188:	0c2010ed 	jal	ffffffffa08043b4 <printf>
ffffffffa080518c:	00000000 	nop
ffffffffa0805190:	8fc20004 	lw	v0,4(s8)
ffffffffa0805194:	0040202d 	move	a0,v0
ffffffffa0805198:	0c200c45 	jal	ffffffffa0803114 <sys_sleep>
ffffffffa080519c:	00000000 	nop
ffffffffa08051a0:	8fc20004 	lw	v0,4(s8)
ffffffffa08051a4:	24420001 	addiu	v0,v0,1
ffffffffa08051a8:	afc20004 	sw	v0,4(s8)
ffffffffa08051ac:	8fc20008 	lw	v0,8(s8)
ffffffffa08051b0:	24040001 	li	a0,1
ffffffffa08051b4:	0040282d 	move	a1,v0
ffffffffa08051b8:	0c200c77 	jal	ffffffffa08031dc <sys_move_cursor>
ffffffffa08051bc:	00000000 	nop
ffffffffa08051c0:	3c020000 	lui	v0,0x0
ffffffffa08051c4:	64420000 	daddiu	v0,v0,0
ffffffffa08051c8:	00021438 	dsll	v0,v0,0x10
ffffffffa08051cc:	6442a080 	daddiu	v0,v0,-24448
ffffffffa08051d0:	00021438 	dsll	v0,v0,0x10
ffffffffa08051d4:	64445558 	daddiu	a0,v0,21848
ffffffffa08051d8:	3c020000 	lui	v0,0x0
ffffffffa08051dc:	64420000 	daddiu	v0,v0,0
ffffffffa08051e0:	00021438 	dsll	v0,v0,0x10
ffffffffa08051e4:	6442a080 	daddiu	v0,v0,-24448
ffffffffa08051e8:	00021438 	dsll	v0,v0,0x10
ffffffffa08051ec:	64455e00 	daddiu	a1,v0,24064
ffffffffa08051f0:	0c2010ed 	jal	ffffffffa08043b4 <printf>
ffffffffa08051f4:	00000000 	nop
ffffffffa08051f8:	0820143c 	j	ffffffffa08050f0 <sleep_task+0x20>
ffffffffa08051fc:	00000000 	nop

ffffffffa0805200 <timer_task>:
ffffffffa0805200:	67bdffe0 	daddiu	sp,sp,-32
ffffffffa0805204:	ffbf0018 	sd	ra,24(sp)
ffffffffa0805208:	ffbe0010 	sd	s8,16(sp)
ffffffffa080520c:	03a0f02d 	move	s8,sp
ffffffffa0805210:	afc00000 	sw	zero,0(s8)
ffffffffa0805214:	24020009 	li	v0,9
ffffffffa0805218:	afc20004 	sw	v0,4(s8)
ffffffffa080521c:	0c20091a 	jal	ffffffffa0802468 <get_timer>
ffffffffa0805220:	00000000 	nop
ffffffffa0805224:	afc20008 	sw	v0,8(s8)
ffffffffa0805228:	8fc20004 	lw	v0,4(s8)
ffffffffa080522c:	24040001 	li	a0,1
ffffffffa0805230:	0040282d 	move	a1,v0
ffffffffa0805234:	0c200c77 	jal	ffffffffa08031dc <sys_move_cursor>
ffffffffa0805238:	00000000 	nop
ffffffffa080523c:	3c020000 	lui	v0,0x0
ffffffffa0805240:	64420000 	daddiu	v0,v0,0
ffffffffa0805244:	00021438 	dsll	v0,v0,0x10
ffffffffa0805248:	6442a080 	daddiu	v0,v0,-24448
ffffffffa080524c:	00021438 	dsll	v0,v0,0x10
ffffffffa0805250:	8c435fe0 	lw	v1,24544(v0)
ffffffffa0805254:	8fc50008 	lw	a1,8(s8)
ffffffffa0805258:	3c020000 	lui	v0,0x0
ffffffffa080525c:	64420000 	daddiu	v0,v0,0
ffffffffa0805260:	00021438 	dsll	v0,v0,0x10
ffffffffa0805264:	6442a080 	daddiu	v0,v0,-24448
ffffffffa0805268:	00021438 	dsll	v0,v0,0x10
ffffffffa080526c:	64445560 	daddiu	a0,v0,21856
ffffffffa0805270:	0060302d 	move	a2,v1
ffffffffa0805274:	0c2010ed 	jal	ffffffffa08043b4 <printf>
ffffffffa0805278:	00000000 	nop
ffffffffa080527c:	08201487 	j	ffffffffa080521c <timer_task+0x1c>
ffffffffa0805280:	00000000 	nop
	...
ffffffffa0805290:	65746e65 	daddiu	s4,a7,28261
ffffffffa0805294:	534f2072 	beql	k0,t3,ffffffffa080d460 <__bbs_end+0x84c>
ffffffffa0805298:	0000000a 	movz	zero,zero,zero
ffffffffa080529c:	00000000 	nop
ffffffffa08052a0:	495b203e 	0x495b203e
ffffffffa08052a4:	5d54494e 	0x5d54494e
ffffffffa08052a8:	61745320 	daddi	s4,a7,21280
ffffffffa08052ac:	68206b63 	ldl	zero,27491(at)
ffffffffa08052b0:	20706165 	addi	s0,v1,24933
ffffffffa08052b4:	74696e69 	jalx	ffffffffa1a5b9a4 <_gp+0x124db24>
ffffffffa08052b8:	696c6169 	ldl	t0,24937(a7)
ffffffffa08052bc:	6974617a 	ldl	s4,24954(a7)
ffffffffa08052c0:	73206e6f 	0x73206e6f
ffffffffa08052c4:	65636375 	daddiu	v1,a7,25461
ffffffffa08052c8:	64656465 	daddiu	a1,v1,25701
ffffffffa08052cc:	00000a2e 	0xa2e
ffffffffa08052d0:	495b203e 	0x495b203e
ffffffffa08052d4:	5d54494e 	0x5d54494e
ffffffffa08052d8:	746e4920 	jalx	ffffffffa1b92480 <_gp+0x1384600>
ffffffffa08052dc:	75727265 	jalx	ffffffffa5c9c994 <_gp+0x548eb14>
ffffffffa08052e0:	70207470 	0x70207470
ffffffffa08052e4:	65636f72 	daddiu	v1,a7,28530
ffffffffa08052e8:	6e697373 	ldr	a5,29555(s3)
ffffffffa08052ec:	6e692067 	ldr	a5,8295(s3)
ffffffffa08052f0:	61697469 	daddi	a5,a7,29801
ffffffffa08052f4:	617a696c 	daddi	k0,a7,26988
ffffffffa08052f8:	6e6f6974 	ldr	t3,26996(s3)
ffffffffa08052fc:	63757320 	daddi	s5,k1,29472
ffffffffa0805300:	64656563 	daddiu	a1,v1,25955
ffffffffa0805304:	0a2e6465 	j	ffffffffa8b99194 <_gp+0x838b314>
ffffffffa0805308:	00000000 	nop
ffffffffa080530c:	00000000 	nop
ffffffffa0805310:	495b203e 	0x495b203e
ffffffffa0805314:	5d54494e 	0x5d54494e
ffffffffa0805318:	72695620 	0x72695620
ffffffffa080531c:	6c617574 	ldr	at,30068(v1)
ffffffffa0805320:	6d656d20 	ldr	a1,27936(a7)
ffffffffa0805324:	2079726f 	addi	t9,v1,29295
ffffffffa0805328:	74696e69 	jalx	ffffffffa1a5b9a4 <_gp+0x124db24>
ffffffffa080532c:	696c6169 	ldl	t0,24937(a7)
ffffffffa0805330:	6974617a 	ldl	s4,24954(a7)
ffffffffa0805334:	73206e6f 	0x73206e6f
ffffffffa0805338:	65636375 	daddiu	v1,a7,25461
ffffffffa080533c:	64656465 	daddiu	a1,v1,25701
ffffffffa0805340:	00000a2e 	0xa2e
ffffffffa0805344:	00000000 	nop
ffffffffa0805348:	495b203e 	0x495b203e
ffffffffa080534c:	5d54494e 	0x5d54494e
ffffffffa0805350:	73795320 	0x73795320
ffffffffa0805354:	206d6574 	addi	t1,v1,25972
ffffffffa0805358:	6c6c6163 	ldr	t0,24931(v1)
ffffffffa080535c:	696e6920 	ldl	t2,26912(a7)
ffffffffa0805360:	6c616974 	ldr	at,26996(v1)
ffffffffa0805364:	64657a69 	daddiu	a1,v1,31337
ffffffffa0805368:	63757320 	daddi	s5,k1,29472
ffffffffa080536c:	73736563 	0x73736563
ffffffffa0805370:	6c6c7566 	ldr	t0,30054(v1)
ffffffffa0805374:	000a2e79 	0xa2e79
ffffffffa0805378:	495b203e 	0x495b203e
ffffffffa080537c:	5d54494e 	0x5d54494e
ffffffffa0805380:	42435020 	wait	0x10d40
ffffffffa0805384:	696e6920 	ldl	t2,26912(a7)
ffffffffa0805388:	6c616974 	ldr	at,26996(v1)
ffffffffa080538c:	74617a69 	jalx	ffffffffa185e9a4 <_gp+0x1050b24>
ffffffffa0805390:	206e6f69 	addi	t2,v1,28521
ffffffffa0805394:	63637573 	daddi	v1,k1,30067
ffffffffa0805398:	65646565 	daddiu	a0,a7,25957
ffffffffa080539c:	000a2e64 	0xa2e64
ffffffffa08053a0:	495b203e 	0x495b203e
ffffffffa08053a4:	5d54494e 	0x5d54494e
ffffffffa08053a8:	52435320 	beql	s2,v1,ffffffffa081a02c <_gp+0xc1ac>
ffffffffa08053ac:	204e4545 	addi	t2,v0,17733
ffffffffa08053b0:	74696e69 	jalx	ffffffffa1a5b9a4 <_gp+0x124db24>
ffffffffa08053b4:	696c6169 	ldl	t0,24937(a7)
ffffffffa08053b8:	6974617a 	ldl	s4,24954(a7)
ffffffffa08053bc:	73206e6f 	0x73206e6f
ffffffffa08053c0:	65636375 	daddiu	v1,a7,25461
ffffffffa08053c4:	64656465 	daddiu	a1,v1,25701
ffffffffa08053c8:	00000a2e 	0xa2e
ffffffffa08053cc:	00000000 	nop
ffffffffa08053d0:	255b6325 	addiu	k1,a6,25381
ffffffffa08053d4:	64253b64 	daddiu	a1,at,15204
ffffffffa08053d8:	00000048 	0x48
ffffffffa08053dc:	00000000 	nop
ffffffffa08053e0:	325b6325 	andi	k1,s2,0x6325
ffffffffa08053e4:	0000004a 	0x4a
ffffffffa08053e8:	3f5b6325 	0x3f5b6325
ffffffffa08053ec:	006c3532 	tlt	v1,t0,0xd4
ffffffffa08053f0:	545b203e 	bnel	v0,k1,ffffffffa080d4ec <__bbs_end+0x8d8>
ffffffffa08053f4:	5d4b5341 	0x5d4b5341
ffffffffa08053f8:	69685420 	ldl	a4,21536(a7)
ffffffffa08053fc:	61742073 	daddi	s4,a7,8307
ffffffffa0805400:	69206b73 	ldl	zero,27507(a5)
ffffffffa0805404:	6f742073 	ldr	s4,8307(k1)
ffffffffa0805408:	73657420 	0x73657420
ffffffffa080540c:	63732074 	daddi	s3,k1,8308
ffffffffa0805410:	75646568 	jalx	ffffffffa59195a0 <_gp+0x510b720>
ffffffffa0805414:	2e72656c 	sltiu	s2,s3,25964
ffffffffa0805418:	64252820 	daddiu	a1,at,10272
ffffffffa080541c:	00000029 	0x29
ffffffffa0805420:	00007325 	0x7325
	...
ffffffffa0805430:	545b203e 	bnel	v0,k1,ffffffffa080d52c <__bbs_end+0x918>
ffffffffa0805434:	5d4b5341 	0x5d4b5341
ffffffffa0805438:	69685420 	ldl	a4,21536(a7)
ffffffffa080543c:	61742073 	daddi	s4,a7,8307
ffffffffa0805440:	69206b73 	ldl	zero,27507(a5)
ffffffffa0805444:	6f742073 	ldr	s4,8307(k1)
ffffffffa0805448:	73657420 	0x73657420
ffffffffa080544c:	63732074 	daddi	s3,k1,8308
ffffffffa0805450:	75646568 	jalx	ffffffffa59195a0 <_gp+0x510b720>
ffffffffa0805454:	2e72656c 	sltiu	s2,s3,25964
ffffffffa0805458:	64252820 	daddiu	a1,at,10272
ffffffffa080545c:	00000029 	0x29
ffffffffa0805460:	00007325 	0x7325
	...
ffffffffa0805470:	00007325 	0x7325
ffffffffa0805474:	00000000 	nop
ffffffffa0805478:	545b203e 	bnel	v0,k1,ffffffffa080d574 <__bbs_end+0x960>
ffffffffa080547c:	5d4b5341 	0x5d4b5341
ffffffffa0805480:	70704120 	0x70704120
ffffffffa0805484:	6e69796c 	ldr	a5,31084(s3)
ffffffffa0805488:	6f662067 	ldr	a2,8295(k1)
ffffffffa080548c:	20612072 	addi	at,v1,8306
ffffffffa0805490:	6b636f6c 	ldl	v1,28524(k1)
ffffffffa0805494:	00000a2e 	0xa2e
ffffffffa0805498:	545b203e 	bnel	v0,k1,ffffffffa080d594 <__bbs_end+0x980>
ffffffffa080549c:	5d4b5341 	0x5d4b5341
ffffffffa08054a0:	73614820 	clz	a5 or at,k1
ffffffffa08054a4:	71636120 	0x71636120
ffffffffa08054a8:	65726975 	daddiu	s2,a7,26997
ffffffffa08054ac:	6f6c2064 	ldr	t0,8292(k1)
ffffffffa08054b0:	61206b63 	daddi	zero,a5,27491
ffffffffa08054b4:	7220646e 	0x7220646e
ffffffffa08054b8:	696e6e75 	ldl	t2,28277(a7)
ffffffffa08054bc:	282e676e 	slti	t2,at,26478
ffffffffa08054c0:	0a296425 	j	ffffffffa8a59094 <_gp+0x824b214>
ffffffffa08054c4:	00000000 	nop
ffffffffa08054c8:	545b203e 	bnel	v0,k1,ffffffffa080d5c4 <__bbs_end+0x9b0>
ffffffffa08054cc:	5d4b5341 	0x5d4b5341
ffffffffa08054d0:	73614820 	clz	a5 or at,k1
ffffffffa08054d4:	71636120 	0x71636120
ffffffffa08054d8:	65726975 	daddiu	s2,a7,26997
ffffffffa08054dc:	6f6c2064 	ldr	t0,8292(k1)
ffffffffa08054e0:	61206b63 	daddi	zero,a5,27491
ffffffffa08054e4:	6520646e 	daddiu	zero,a5,25710
ffffffffa08054e8:	65746978 	daddiu	s4,a7,27000
ffffffffa08054ec:	000a2e64 	0xa2e64
ffffffffa08054f0:	545b203e 	bnel	v0,k1,ffffffffa080d5ec <__bbs_end+0x9d8>
ffffffffa08054f4:	5d4b5341 	0x5d4b5341
ffffffffa08054f8:	69685420 	ldl	a4,21536(a7)
ffffffffa08054fc:	61742073 	daddi	s4,a7,8307
ffffffffa0805500:	69206b73 	ldl	zero,27507(a5)
ffffffffa0805504:	6f742073 	ldr	s4,8307(k1)
ffffffffa0805508:	73657420 	0x73657420
ffffffffa080550c:	6c732074 	ldr	s3,8308(v1)
ffffffffa0805510:	28706565 	slti	s0,v1,25957
ffffffffa0805514:	28202e29 	slti	zero,at,11817
ffffffffa0805518:	0a296425 	j	ffffffffa8a59094 <_gp+0x824b214>
ffffffffa080551c:	00000000 	nop
ffffffffa0805520:	545b203e 	bnel	v0,k1,ffffffffa080d61c <__bbs_end+0xa08>
ffffffffa0805524:	5d4b5341 	0x5d4b5341
ffffffffa0805528:	69685420 	ldl	a4,21536(a7)
ffffffffa080552c:	61742073 	daddi	s4,a7,8307
ffffffffa0805530:	69206b73 	ldl	zero,27507(a5)
ffffffffa0805534:	6c732073 	ldr	s3,8307(v1)
ffffffffa0805538:	69706565 	ldl	s0,25957(a7)
ffffffffa080553c:	202c676e 	addi	t0,at,26478
ffffffffa0805540:	65656c73 	daddiu	a1,a7,27763
ffffffffa0805544:	69742070 	ldl	s4,8304(a7)
ffffffffa0805548:	6920656d 	ldl	zero,25965(a5)
ffffffffa080554c:	64252073 	daddiu	a1,at,8307
ffffffffa0805550:	00000a2e 	0xa2e
ffffffffa0805554:	00000000 	nop
ffffffffa0805558:	00007325 	0x7325
ffffffffa080555c:	00000000 	nop
ffffffffa0805560:	545b203e 	bnel	v0,k1,ffffffffa080d65c <__bbs_end+0xa48>
ffffffffa0805564:	5d4b5341 	0x5d4b5341
ffffffffa0805568:	69685420 	ldl	a4,21536(a7)
ffffffffa080556c:	73692073 	0x73692073
ffffffffa0805570:	74206120 	jalx	ffffffffa0818480 <_gp+0xa600>
ffffffffa0805574:	61657268 	daddi	a1,a7,29288
ffffffffa0805578:	6f742064 	ldr	s4,8292(k1)
ffffffffa080557c:	6d697420 	ldr	a5,29728(a7)
ffffffffa0805580:	21676e69 	addi	a3,a7,28265
ffffffffa0805584:	75252820 	jalx	ffffffffa494a080 <_gp+0x413c200>
ffffffffa0805588:	2075252f 	addi	s5,v1,9519
ffffffffa080558c:	6f636573 	ldr	v1,25971(k1)
ffffffffa0805590:	2973646e 	slti	s3,a7,25710
ffffffffa0805594:	00000a2e 	0xa2e
	...
